(dp1
S'output'
p2
S"<class 'sqlite3.IntegrityError'> foreign key constraint failed"
p3
sS'layer'
p4
S'C:\\Users\\lenovo\\Downloads\\Compressed\\web2py\\applications\\app1\\controllers/default.py'
p5
sS'code'
p6
S'# -*- coding: utf-8 -*-\n# this file is released under public domain and you can use without limitations\n\n#########################################################################\n## This is a sample controller\n## - index is the default action of any application\n## - user is required for authentication and authorization\n## - download is for downloading files uploaded in the db (does streaming)\n## - api is an example of Hypermedia API support and access control\n#########################################################################\ndef home():\n    response.flash = "welcome to incredible varanasi"\n    mail.send(to=[\'mehuljain811@gmail.com\'],\n          subject=\'hello\',\n          # If reply_to is omitted, then mail.settings.sender is used\n          reply_to=\'mehuljain811@gmail.com\',\n          message=\'hi there\')\n\n    response.files.append(URL(\'static\', \'css/background.css\'))\n    response.files.append(URL(\'static\', \'css/grid.css\'))\n    return locals()\n\n@auth.requires_login()\ndef bank():\n    #hrei_rows = db(db.places.place_type=="heritage").select(orderby = ~db.places.rating)\n    form = SQLFORM.factory(Field(\'Current Location\', requires=IS_IN_DB(db, \'places.place_name\', \'%(place_name)s\')))\n    check_form = form.process()\n    if check_form.accepted:\n        t=form.components[0]\n        bank_rows = db(db.place_distance.place2==t).select(db.place_distance.place1,db.place_distance.distance,orderby = db.place_distance.distance)\n        #hrei_near_rows = db.executesql(\'select place1,distance from place_distance where place2=selected_place order by distance\')\n    else:\n        bank_rows = db.executesql(\'select place_name,rating from places where place_type="bank" order by rating desc\')\n    return locals()\n\n@auth.requires_login()\ndef bank_place():\n    response.files.append(URL(\'static\', \'css/background_bank.css\'))\n    response.files.append(URL(\'static\', \'css/box_bank.css\'))\n    response.files.append(URL(\'static\', \'css/box_bank_contact.css\'))\n    postals = db(db.bank.ID_BK==request.args[0]).select()\n    db.visit_places.Place_ID.default = request.args[0]\n    db.visit_places.Place_ID.readable = False\n    db.visit_places.Place_ID.writable = False\n\n    db.visit_places.RU_ID_Place.readable = False\n    db.visit_places.RU_ID_Place.writable = False\n\n    form = SQLFORM(db.visit_places).process()\n    comments = db(db.visit_places.Place_ID==request.args[0]).select()\n\n    db.visit_places.RU_ID_Place.default = db.visit_places.created_by\n    return locals()\n\n\n@auth.requires_login()\ndef entertainment():\n    #hrei_rows = db(db.places.place_type=="heritage").select(orderby = ~db.places.rating)\n    form = SQLFORM.factory(Field(\'Current Location\', requires=IS_IN_DB(db, \'places.place_name\', \'%(place_name)s\')))\n    check_form = form.process()\n    if check_form.accepted:\n        t=form.components[0]\n        enter_rows = db(db.place_distance.place2==t).select(db.place_distance.place1,db.place_distance.distance,orderby = db.place_distance.distance)\n        #hrei_near_rows = db.executesql(\'select place1,distance from place_distance where place2=selected_place order by distance\')\n    else:\n        enter_rows = db.executesql(\'select place_name,rating from places where place_type="entertainment" order by rating desc\')\n    return locals()\n\n@auth.requires_login()\ndef enter_place():\n    response.files.append(URL(\'static\', \'css/background_entertainment.css\'))\n    response.files.append(URL(\'static\', \'css/box_entertainment.css\'))\n    postals = db(db.entertainment_hub.ID_EH==request.args[0]).select()\n    db.visit_places.Place_ID.default = request.args[0]\n    db.visit_places.Place_ID.readable = False\n    db.visit_places.Place_ID.writable = False\n    db.visit_places.RU_ID_Place.readable = False\n    db.visit_places.RU_ID_Place.writable = False\n\n    form = SQLFORM(db.visit_places).process()\n    comments = db(db.visit_places.Place_ID==request.args[0]).select()\n\n    db.visit_places.RU_ID_Place.default = db.visit_places.created_by\n    return locals()\n\n\n@auth.requires_login()\ndef fuel_agency():\n    #hrei_rows = db(db.places.place_type=="heritage").select(orderby = ~db.places.rating)\n    form = SQLFORM.factory(Field(\'Current Location\', requires=IS_IN_DB(db, \'places.place_name\', \'%(place_name)s\')))\n    check_form = form.process()\n    if check_form.accepted:\n        t=form.components[0]\n        fag_rows = db(db.place_distance.place2==t).select(db.place_distance.place1,db.place_distance.distance,orderby = db.place_distance.distance)\n        #hrei_near_rows = db.executesql(\'select place1,distance from place_distance where place2=selected_place order by distance\')\n    else:\n        fag_rows = db.executesql(\'select place_name,rating from places where place_type="fuel agency" order by rating desc\')\n    return locals()\n\n@auth.requires_login()\ndef fuelagency_place():\n    response.files.append(URL(\'static\', \'css/background_fuelagency.css\'))\n    response.files.append(URL(\'static\', \'css/box_fuel.css\'))\n    postals = db(db.fuel_agency_FA==request.args[0]).select()\n ##   affil = db(db.fuel_company_ID_FC==request.arg[0]).select()\n    x = db.fuel_agency(ID_FA==request.args[0])\n    affil = db.fuel_company(ID_FC==x.ID_FC_R)\n    db.visit_places.Place_ID.default = request.args[0]\n    db.visit_places.Place_ID.readable = False\n    db.visit_places.Place_ID.writable = False\n    db.visit_places.RU_ID_Place.readable = False\n    db.visit_places.RU_ID_Place.writable = False\n    form = SQLFORM(db.visit_places).process()\n    comments = db(db.visit_places.Place_ID==request.args[0]).select()\n\n    db.visit_places.RU_ID_Place.default = db.visit_places.created_by\n    return locals()\n\n\n\n@auth.requires_login()\ndef fuel_company():\n    #hrei_rows = db(db.places.place_type=="heritage").select(orderby = ~db.places.rating)\n    form = SQLFORM.factory(Field(\'Current Location\', requires=IS_IN_DB(db, \'places.place_name\', \'%(place_name)s\')))\n    check_form = form.process()\n    if check_form.accepted:\n        t=form.components[0]\n        fc_rows = db(db.place_distance.place2==t).select(db.place_distance.place1,db.place_distance.distance,orderby = db.place_distance.distance)\n        #hrei_near_rows = db.executesql(\'select place1,distance from place_distance where place2=selected_place order by distance\')\n    else:\n        fc_rows = db.executesql(\'select place_name,rating from places where place_type="fuel comapany" order by rating desc\')\n    return locals()\n\n\n@auth.requires_login()\ndef fuelcompany_place():\n    response.files.append(URL(\'static\', \'css/background_fuelcompany.css\'))\n    response.files.append(URL(\'static\', \'css/box_fuel.css\'))\n    postals = db(db.fuel_company.ID_FC==request.args[0]).select()\n    \n    db.visit_places.Place_ID.default = request.args[0]\n    db.visit_places.Place_ID.readable = False\n    db.visit_places.Place_ID.writable = False\n\n    db.visit_places.RU_ID_Place.readable = False\n    db.visit_places.RU_ID_Place.writable = False\n\n    form = SQLFORM(db.visit_places).process()\n    comments = db(db.visit_places.Place_ID==request.args[0]).select()\n\n    db.visit_places.RU_ID_Place.default = db.visit_places.created_by\n    return locals()\n\n@auth.requires_login()\ndef handloom():\n    #hrei_rows = db(db.places.place_type=="heritage").select(orderby = ~db.places.rating)\n    form = SQLFORM.factory(Field(\'Current Location\', requires=IS_IN_DB(db, \'places.place_name\', \'%(place_name)s\')))\n    check_form = form.process()\n    if check_form.accepted:\n        t=form.components[0]\n        hand_rows = db(db.place_distance.place2==t).select(db.place_distance.place1,db.place_distance.distance,orderby = db.place_distance.distance)\n        #hrei_near_rows = db.executesql(\'select place1,distance from place_distance where place2=selected_place order by distance\')\n    else:\n        hand_rows = db.executesql(\'select place_name,rating from places where place_type="handloom" order by rating desc\')\n    return locals()\n\n@auth.requires_login()\ndef handloom_place():\n    response.files.append(URL(\'static\', \'css/background_handloom.css\'))\n    response.files.append(URL(\'static\', \'css/box_handloom.css\'))\n    postals = db(db.local_handlooms.ID_LH==request.args[0]).select()\n    \n    db.visit_places.Place_ID.default = request.args[0]\n    db.visit_places.Place_ID.readable = False\n    db.visit_places.Place_ID.writable = False\n\n    db.visit_places.RU_ID_Place.readable = False\n    db.visit_places.RU_ID_Place.writable = False\n\n    form = SQLFORM(db.visit_places).process()\n    comments = db(db.visit_places.Place_ID==request.args[0]).select()\n\n    db.visit_places.RU_ID_Place.default = db.visit_places.created_by\n    return locals()\n\n\n\n\n@auth.requires_login()\ndef heritage():\n    #hrei_rows = db(db.places.place_type=="heritage").select(orderby = ~db.places.rating)\n    form = SQLFORM.factory(Field(\'Current Location\', requires=IS_IN_DB(db, \'places.place_name\', \'%(place_name)s\')))\n    check_form = form.process()\n    if check_form.accepted:\n        t=form.components[0]\n        hrei_rows = db(db.place_distance.place2==t).select(db.place_distance.place1,db.place_distance.distance,orderby = db.place_distance.distance)\n        #hrei_near_rows = db.executesql(\'select place1,distance from place_distance where place2=selected_place order by distance\')\n    else:\n        hrei_rows = db.executesql(\'select Place_Name as place1,rating,Place_ID from places where Place_Type="heritage" order by rating desc\')\n    return locals()\n\n@auth.requires_login()\ndef heri_place():\n    response.files.append(URL(\'static\', \'css/background_heritage.css\'))\n    response.files.append(URL(\'static\', \'css/box_heritage.css\'))\n    #postal = db.heritage_areas(request.args)\n    #posts = db.executesql(\'select * from heritage_areas where ID_HA="ha1"\')\n    postals = db(db.heritage_areas.ID_HA==request.args[0]).select()\n    db.visit_places.Place_ID.default = request.args[0]\n    db.visit_places.Place_ID.readable = False\n    db.visit_places.Place_ID.writable = False\n\n    db.visit_places.RU_ID_Place.readable = False\n    db.visit_places.RU_ID_Place.writable = False\n\n    form = SQLFORM(db.visit_places).process()\n    comments = db(db.visit_places.Place_ID==request.args[0]).select()\n\n    db.visit_places.RU_ID_Place.default = db.visit_places.created_by\n\n    return locals()\n\n\n\n\n\n@auth.requires_login()\ndef hotel():\n    #hrei_rows = db(db.places.place_type=="heritage").select(orderby = ~db.places.rating)\n    form = SQLFORM.factory(Field(\'Current Location\', requires=IS_IN_DB(db, \'places.place_name\', \'%(place_name)s\')))\n    check_form = form.process()\n    if check_form.accepted:\n        t=form.components[0]\n        hotel_rows = db(db.place_distance.place2==t).select(db.place_distance.place1,db.place_distance.distance,orderby = db.place_distance.distance)\n        #hrei_near_rows = db.executesql(\'select place1,distance from place_distance where place2=selected_place order by distance\')\n    else:\n        hotel_rows = db.executesql(\'select place_name,rating from places where place_type="hotel" order by rating desc\')\n    return locals()\n\n@auth.requires_login()\ndef hotel_place():\n    response.files.append(URL(\'static\', \'css/background_hotel.css\'))\n    response.files.append(URL(\'static\', \'css/box_entertainment.css\'))\n    postals = db(db.hotels.ID_HT==request.args[0]).select()\n    \n    db.visit_places.Place_ID.default = request.args[0]\n    db.visit_places.Place_ID.readable = False\n    db.visit_places.Place_ID.writable = False\n\n    db.visit_places.RU_ID_Place.readable = False\n    db.visit_places.RU_ID_Place.writable = False\n\n    form = SQLFORM(db.visit_places).process()\n    comments = db(db.visit_places.Place_ID==request.args[0]).select()\n\n    db.visit_places.RU_ID_Place.default = db.visit_places.created_by\n    return locals()\n\n\n@auth.requires_login()\ndef recreation():\n    #hrei_rows = db(db.places.place_type=="heritage").select(orderby = ~db.places.rating)\n    form = SQLFORM.factory(Field(\'Current Location\', requires=IS_IN_DB(db, \'places.place_name\', \'%(place_name)s\')))\n    check_form = form.process()\n    if check_form.accepted:\n        t=form.components[0]\n        rec_rows = db(db.place_distance.place2==t).select(db.place_distance.place1,db.place_distance.distance,orderby = db.place_distance.distance)\n        #hrei_near_rows = db.executesql(\'select place1,distance from place_distance where place2=selected_place order by distance\')\n    else:\n        rec_rows = db.executesql(\'select place_name,rating from places where place_type="recreation" order by rating desc\')\n    return locals()\n\n@auth.requires_login()\ndef recreat_place():\n    response.files.append(URL(\'static\', \'css/background_recreation.css\'))\n    response.files.append(URL(\'static\', \'css/box_entertainment.css\'))\n    postals = db(db.heritage_areas.ID_HA==request.args[0]).select()\n    \n    db.visit_places.Place_ID.default = request.args[0]\n    db.visit_places.Place_ID.readable = False\n    db.visit_places.Place_ID.writable = False\n\n    db.visit_places.RU_ID_Place.readable = False\n    db.visit_places.RU_ID_Place.writable = False\n\n    form = SQLFORM(db.visit_places).process()\n    comments = db(db.visit_places.Place_ID==request.args[0]).select()\n\n    db.visit_places.RU_ID_Place.default = db.visit_places.created_by\n    return locals()\n\n\n@auth.requires_login()\ndef restaurant():\n    #hrei_rows = db(db.places.place_type=="heritage").select(orderby = ~db.places.rating)\n    form = SQLFORM.factory(Field(\'Current Location\', requires=IS_IN_DB(db, \'places.place_name\', \'%(place_name)s\')))\n    check_form = form.process()\n    if check_form.accepted:\n        t=form.components[0]\n        restaur_rows = db(db.place_distance.place2==t).select(db.place_distance.place1,db.place_distance.distance,orderby = db.place_distance.distance)\n        #hrei_near_rows = db.executesql(\'select place1,distance from place_distance where place2=selected_place order by distance\')\n    else:\n        restaur_rows = db.executesql(\'select place_name,rating from places where place_type="restaurant" order by rating desc\')\n    return locals()\n\n@auth.requires_login()\ndef restaur_place():\n    response.files.append(URL(\'static\', \'css/background_restaurant.css\'))\n    response.files.append(URL(\'static\', \'css/box_fuel.css\'))\n    postals = db(db.heritage_areas.ID_HA==request.args[0]).select()\n    \n    db.visit_places.Place_ID.default = request.args[0]\n    db.visit_places.Place_ID.readable = False\n    db.visit_places.Place_ID.writable = False\n\n    db.visit_places.RU_ID_Place.readable = False\n    db.visit_places.RU_ID_Place.writable = False\n\n    form = SQLFORM(db.visit_places).process()\n    comments = db(db.visit_places.Place_ID==request.args[0]).select()\n\n    db.visit_places.RU_ID_Place.default = db.visit_places.created_by\n    return locals()\n\n\n@auth.requires_login()\ndef spiritual():\n    #hrei_rows = db(db.places.place_type=="heritage").select(orderby = ~db.places.rating)\n    form = SQLFORM.factory(Field(\'Current Location\', requires=IS_IN_DB(db, \'places.place_name\', \'%(place_name)s\')))\n    check_form = form.process()\n    if check_form.accepted:\n        t=form.components[0]\n        spirit_rows = db(db.place_distance.place2==t).select(db.place_distance.place1,db.place_distance.distance,orderby = db.place_distance.distance)\n        #hrei_near_rows = db.executesql(\'select place1,distance from place_distance where place2=selected_place order by distance\')\n    else:\n        spirit_rows = db.executesql(\'select place_name,rating from places where place_type="spiritual" order by rating desc\')\n    return locals()\n\n@auth.requires_login()\ndef spirit_place():\n    response.files.append(URL(\'static\', \'css/background_spiritual.css\'))\n    response.files.append(URL(\'static\', \'css/box_spiritual.css\'))\n    postals = db(db.heritage_areas.ID_HA==request.args[0]).select()\n    \n    db.visit_places.Place_ID.default = request.args[0]\n    db.visit_places.Place_ID.readable = False\n    db.visit_places.Place_ID.writable = False\n\n    db.visit_places.RU_ID_Place.readable = False\n    db.visit_places.RU_ID_Place.writable = False\n\n    form = SQLFORM(db.visit_places).process()\n    comments = db(db.visit_places.Place_ID==request.args[0]).select()\n\n    db.visit_places.RU_ID_Place.default = db.visit_places.created_by\n    return locals()\n\n\n@auth.requires_login()\ndef taxi_service():\n    #hrei_rows = db(db.places.place_type=="heritage").select(orderby = ~db.places.rating)\n    form = SQLFORM.factory(Field(\'Current Location\', requires=IS_IN_DB(db, \'places.place_name\', \'%(place_name)s\')))\n    check_form = form.process()\n    if check_form.accepted:\n        t=form.components[0]\n        taxi_rows = db(db.place_distance.place2==t).select(db.place_distance.place1,db.place_distance.distance,orderby = db.place_distance.distance)\n        #hrei_near_rows = db.executesql(\'select place1,distance from place_distance where place2=selected_place order by distance\')\n    else:\n        taxi_rows = db.executesql(\'select place_name,rating from places where place_type="taxi service" order by rating desc\')\n    return locals()\n\n@auth.requires_login()\ndef taxi_place():\n    response.files.append(URL(\'static\', \'css/background_taxiservice.css\'))\n    response.files.append(URL(\'static\', \'css/box_taxiservice.css\'))\n    postals = db(db.heritage_areas.ID_HA==request.args[0]).select()\n    \n    db.visit_places.Place_ID.default = request.args[0]\n    db.visit_places.Place_ID.readable = False\n    db.visit_places.Place_ID.writable = False\n\n    db.visit_places.RU_ID_Place.readable = False\n    db.visit_places.RU_ID_Place.writable = False\n\n    form = SQLFORM(db.visit_places).process()\n    comments = db(db.visit_places.Place_ID==request.args[0]).select()\n\n    db.visit_places.RU_ID_Place.default = db.visit_places.created_by\n    return locals()\n\n@auth.requires_login()\ndef travel_agency():\n    #hrei_rows = db(db.places.place_type=="heritage").select(orderby = ~db.places.rating)\n    form = SQLFORM.factory(Field(\'Current Location\', requires=IS_IN_DB(db, \'places.place_name\', \'%(place_name)s\')))\n    check_form = form.process()\n    if check_form.accepted:\n        t=form.components[0]\n        travel_rows = db(db.place_distance.place2==t).select(db.place_distance.place1,db.place_distance.distance,orderby = db.place_distance.distance)\n        #hrei_near_rows = db.executesql(\'select place1,distance from place_distance where place2=selected_place order by distance\')\n    else:\n        travel_rows = db.executesql(\'select place_name,rating from places where place_type="travel agency" order by rating desc\')\n    return locals()\n\n@auth.requires_login()\ndef travel_place():\n    response.files.append(URL(\'static\', \'css/background_travelagency.css\'))\n    response.files.append(URL(\'static\', \'css/box_fuel.css\'))\n    postals = db(db.heritage_areas.ID_HA==request.args[0]).select()\n    \n    db.visit_places.Place_ID.default = request.args[0]\n    db.visit_places.Place_ID.readable = False\n    db.visit_places.Place_ID.writable = False\n\n    db.visit_places.RU_ID_Place.readable = False\n    db.visit_places.RU_ID_Place.writable = False\n\n    form = SQLFORM(db.visit_places).process()\n    comments = db(db.visit_places.Place_ID==request.args[0]).select()\n\n    db.visit_places.RU_ID_Place.default = db.visit_places.created_by\n    return locals()\n\n\n\n\n\ndef index():\n    """\n    example action using the internationalization operator T and flash\n    rendered by views/default/index.html or views/generic.html\n\n    if you need a simple wiki simply replace the two lines below with:\n    return auth.wiki()\n    """\n    #rows = db(db.blog_post).select()\n    #response.flash = T("Welcome to Incredible Varanasi")\n    redirect(URL(\'home\'))\n    return locals()\n#@auth.requires_login()\n\ndef comment():\n    x = request.args[0]\n    y = request.args[1]\n    postals = db(db.visit_reply.postid==x).select()\n    db.visit_reply.postid.default = x\n    db.visit_reply.postid.readable = False\n    db.visit_reply.postid.writable = False\n    form = SQLFORM(db.visit_reply).process()\n\n    if form.accepted:\n        postals = db(db.visit_reply.postid==request.args[0]).select()\n    return locals()\n    \ndef create():\n    x = "Created by: Mehul Jain"\n    return x\ndef show():\n    return "Team MADS"\n\ndef user():\n    """\n    exposes:\n    http://..../[app]/default/user/login\n    http://..../[app]/default/user/logout\n    http://..../[app]/default/user/register\n    http://..../[app]/default/user/profile\n    http://..../[app]/default/user/retrieve_password\n    http://..../[app]/default/user/change_password\n    http://..../[app]/default/user/manage_users (requires membership in\n    use @auth.requires_login()\n        @auth.requires_membership(\'group name\')\n        @auth.requires_permission(\'read\',\'table name\',record_id)\n    to decorate functions that need access control\n    """\n    return dict(form=auth())\n\n\n@cache.action()\ndef download():\n    """\n    allows downloading of uploaded files\n    http://..../[app]/default/download/[filename]\n    """\n    return response.download(request, db)\n\n\ndef call():\n    """\n    exposes services. for example:\n    http://..../[app]/default/call/jsonrpc\n    decorate with @services.jsonrpc the functions to expose\n    supports xml, json, xmlrpc, jsonrpc, amfrpc, rss, csv\n    """\n    return service()\n\n\n@auth.requires_login()\ndef api():\n    """\n    this is example of API with access control\n    WEB2PY provides Hypermedia API (Collection+JSON) Experimental\n    """\n    from gluon.contrib.hypermedia import Collection\n    rules = {\n        \'<tablename>\': {\'GET\':{},\'POST\':{},\'PUT\':{},\'DELETE\':{}},\n        }\n    return Collection(db).process(request,response,rules)\n\nresponse._vars=response._caller(user)\n'
p7
sS'snapshot'
p8
(dp9
S'exception'
p10
(dp11
S'__module__'
p12
S"'sqlite3'"
p13
sS'__getslice__'
p14
S"<method-wrapper '__getslice__' of IntegrityError object>"
p15
sS'__str__'
p16
S"<method-wrapper '__str__' of IntegrityError object>"
p17
sS'__reduce__'
p18
S'<built-in method __reduce__ of IntegrityError object>'
p19
sS'__dict__'
p20
S'{}'
p21
sS'__sizeof__'
p22
S'<built-in method __sizeof__ of IntegrityError object>'
p23
sS'__weakref__'
p24
S'None'
p25
sS'__init__'
p26
S"<method-wrapper '__init__' of IntegrityError object>"
p27
sS'__setattr__'
p28
S"<method-wrapper '__setattr__' of IntegrityError object>"
p29
sS'__reduce_ex__'
p30
S'<built-in method __reduce_ex__ of IntegrityError object>'
p31
sS'__new__'
p32
S'<built-in method __new__ of type object>'
p33
sS'__format__'
p34
S'<built-in method __format__ of IntegrityError object>'
p35
sS'__class__'
p36
S"<class 'sqlite3.IntegrityError'>"
p37
sS'__doc__'
p38
S'None'
p39
sS'__getitem__'
p40
S"<method-wrapper '__getitem__' of IntegrityError object>"
p41
sS'__setstate__'
p42
S'<built-in method __setstate__ of IntegrityError object>'
p43
sS'__getattribute__'
p44
S"<method-wrapper '__getattribute__' of IntegrityError object>"
p45
sS'args'
p46
S"('foreign key constraint failed',)"
p47
sS'__subclasshook__'
p48
S'<built-in method __subclasshook__ of type object>'
p49
sS'__unicode__'
p50
S'<built-in method __unicode__ of IntegrityError object>'
p51
sS'__delattr__'
p52
S"<method-wrapper '__delattr__' of IntegrityError object>"
p53
sS'__repr__'
p54
S"<method-wrapper '__repr__' of IntegrityError object>"
p55
sS'__hash__'
p56
S"<method-wrapper '__hash__' of IntegrityError object>"
p57
ssS'evalue'
p58
S'foreign key constraint failed'
p59
sS'request'
p60
cgluon.html
XML_unpickle
p61
(S's\x81]\x00\x00<div><table><tr><td style="font-weight:bold;vertical-align:top;">ajax</td><td style="vertical-align:top;">:</td><td><div>False</div></td></tr><tr><td style="font-weight:bold;vertical-align:top;">application</td><td style="vertical-align:top;">:</td><td><div>app1</div></td></tr><tr><td style="font-weight:bold;vertical-align:top;">args</td><td style="vertical-align:top;">:</td><td><div><table><tr><td><div>logout</div></td></tr></table></div></td></tr><tr><td style="font-weight:bold;vertical-align:top;">cid</td><td style="vertical-align:top;">:</td><td><div>None</div></td></tr><tr><td style="font-weight:bold;vertical-align:top;">client</td><td style="vertical-align:top;">:</td><td><div>10.9.10.23</div></td></tr><tr><td style="font-weight:bold;vertical-align:top;">controller</td><td style="vertical-align:top;">:</td><td><div>default</div></td></tr><tr><td style="font-weight:bold;vertical-align:top;">cookies</td><td style="vertical-align:top;">:</td><td><div><table><tr><td style="font-weight:bold;vertical-align:top;">session_id_admin</td><td style="vertical-align:top;">:</td><td><div>10.9.10.23-158e6106-c356-4166-99fb-fabfb47ab226<table><tr><td style="font-weight:bold;vertical-align:top;">comment</td><td style="vertical-align:top;">:</td><td><div></div></td></tr><tr><td style="font-weight:bold;vertical-align:top;">domain</td><td style="vertical-align:top;">:</td><td><div></div></td></tr><tr><td style="font-weight:bold;vertical-align:top;">expires</td><td style="vertical-align:top;">:</td><td><div></div></td></tr><tr><td style="font-weight:bold;vertical-align:top;">httponly</td><td style="vertical-align:top;">:</td><td><div></div></td></tr><tr><td style="font-weight:bold;vertical-align:top;">max-age</td><td style="vertical-align:top;">:</td><td><div></div></td></tr><tr><td style="font-weight:bold;vertical-align:top;">path</td><td style="vertical-align:top;">:</td><td><div></div></td></tr><tr><td style="font-weight:bold;vertical-align:top;">secure</td><td style="vertical-align:top;">:</td><td><div></div></td></tr><tr><td style="font-weight:bold;vertical-align:top;">version</td><td style="vertical-align:top;">:</td><td><div></div></td></tr></table></div></td></tr><tr><td style="font-weight:bold;vertical-align:top;">session_id_app1</td><td style="vertical-align:top;">:</td><td><div>10.9.10.23-69262882-f184-4154-8b5e-db815347c5e5<table><tr><td style="font-weight:bold;vertical-align:top;">comment</td><td style="vertical-align:top;">:</td><td><div></div></td></tr><tr><td style="font-weight:bold;vertical-align:top;">domain</td><td style="vertical-align:top;">:</td><td><div></div></td></tr><tr><td style="font-weight:bold;vertical-align:top;">expires</td><td style="vertical-align:top;">:</td><td><div></div></td></tr><tr><td style="font-weight:bold;vertical-align:top;">httponly</td><td style="vertical-align:top;">:</td><td><div></div></td></tr><tr><td style="font-weight:bold;vertical-align:top;">max-age</td><td style="vertical-align:top;">:</td><td><div></div></td></tr><tr><td style="font-weight:bold;vertical-align:top;">path</td><td style="vertical-align:top;">:</td><td><div></div></td></tr><tr><td style="font-weight:bold;vertical-align:top;">secure</td><td style="vertical-align:top;">:</td><td><div></div></td></tr><tr><td style="font-weight:bold;vertical-align:top;">version</td><td style="vertical-align:top;">:</td><td><div></div></td></tr></table></div></td></tr><tr><td style="font-weight:bold;vertical-align:top;">session_id_welcome</td><td style="vertical-align:top;">:</td><td><div>10.9.10.23-5927d691-e76b-4ead-aecf-47bc2135770d<table><tr><td style="font-weight:bold;vertical-align:top;">comment</td><td style="vertical-align:top;">:</td><td><div></div></td></tr><tr><td style="font-weight:bold;vertical-align:top;">domain</td><td style="vertical-align:top;">:</td><td><div></div></td></tr><tr><td style="font-weight:bold;vertical-align:top;">expires</td><td style="vertical-align:top;">:</td><td><div></div></td></tr><tr><td style="font-weight:bold;vertical-align:top;">httponly</td><td style="vertical-align:top;">:</td><td><div></div></td></tr><tr><td style="font-weight:bold;vertical-align:top;">max-age</td><td style="vertical-align:top;">:</td><td><div></div></td></tr><tr><td style="font-weight:bold;vertical-align:top;">path</td><td style="vertical-align:top;">:</td><td><div></div></td></tr><tr><td style="font-weight:bold;vertical-align:top;">secure</td><td style="vertical-align:top;">:</td><td><div></div></td></tr><tr><td style="font-weight:bold;vertical-align:top;">version</td><td style="vertical-align:top;">:</td><td><div></div></td></tr></table></div></td></tr></table></div></td></tr><tr><td style="font-weight:bold;vertical-align:top;">env</td><td style="vertical-align:top;">:</td><td><div><table><tr><td style="font-weight:bold;vertical-align:top;">HTTP_ACCEPT</td><td style="vertical-align:top;">:</td><td><div>text/html,application/xhtml+xml,application/xml;q=0.9,image/webp,*/*;q=0.8</div></td></tr><tr><td style="font-weight:bold;vertical-align:top;">HTTP_ACCEPT_ENCODING</td><td style="vertical-align:top;">:</td><td><div>gzip,deflate,sdch</div></td></tr><tr><td style="font-weight:bold;vertical-align:top;">HTTP_ACCEPT_LANGUAGE</td><td style="vertical-align:top;">:</td><td><div>en-US,en;q=0.8</div></td></tr><tr><td style="font-weight:bold;vertical-align:top;">HTTP_CONNECTION</td><td style="vertical-align:top;">:</td><td><div>keep-alive</div></td></tr><tr><td style="font-weight:bold;vertical-align:top;">HTTP_COOKIE</td><td style="vertical-align:top;">:</td><td><div>session_id_welcome=10.9.10.23-5927d691-e76b-4ead-aecf-47bc2135770d; session_id_app1=10.9.10.23-69262882-f184-4154-8b5e-db815347c5e5; session_id_admin=10.9.10.23-158e6106-c356-4166-99fb-fabfb47ab226</div></td></tr><tr><td style="font-weight:bold;vertical-align:top;">HTTP_HOST</td><td style="vertical-align:top;">:</td><td><div>10.9.10.23</div></td></tr><tr><td style="font-weight:bold;vertical-align:top;">HTTP_REFERER</td><td style="vertical-align:top;">:</td><td><div>http://10.9.10.23/app1/default/home</div></td></tr><tr><td style="font-weight:bold;vertical-align:top;">HTTP_USER_AGENT</td><td style="vertical-align:top;">:</td><td><div>Mozilla/5.0 (Windows NT 6.3; WOW64) AppleWebKit/537.36 (KHTML, like Gecko) Chrome/38.0.2125.111 Safari/537.36</div></td></tr><tr><td style="font-weight:bold;vertical-align:top;">PATH_INFO</td><td style="vertical-align:top;">:</td><td><div>/app1/default/user/logout</div></td></tr><tr><td style="font-weight:bold;vertical-align:top;">QUERY_STRING</td><td style="vertical-align:top;">:</td><td><div>_next=/app1/default/index</div></td></tr><tr><td style="font-weight:bold;vertical-align:top;">REMOTE_ADDR</td><td style="vertical-align:top;">:</td><td><div>10.9.10.23</div></td></tr><tr><td style="font-weight:bold;vertical-align:top;">REMOTE_PORT</td><td style="vertical-align:top;">:</td><td><div>64851</div></td></tr><tr><td style="font-weight:bold;vertical-align:top;">REQUEST_METHOD</td><td style="vertical-align:top;">:</td><td><div>GET</div></td></tr><tr><td style="font-weight:bold;vertical-align:top;">SCRIPT_NAME</td><td style="vertical-align:top;">:</td><td><div></div></td></tr><tr><td style="font-weight:bold;vertical-align:top;">SERVER_NAME</td><td style="vertical-align:top;">:</td><td><div>ITSMJTHING</div></td></tr><tr><td style="font-weight:bold;vertical-align:top;">SERVER_PORT</td><td style="vertical-align:top;">:</td><td><div>80</div></td></tr><tr><td style="font-weight:bold;vertical-align:top;">SERVER_PROTOCOL</td><td style="vertical-align:top;">:</td><td><div>HTTP/1.1</div></td></tr><tr><td style="font-weight:bold;vertical-align:top;">SERVER_SOFTWARE</td><td style="vertical-align:top;">:</td><td><div>Rocket 1.2.6</div></td></tr><tr><td style="font-weight:bold;vertical-align:top;">app_folders</td><td style="vertical-align:top;">:</td><td><div>set([&#x27;C:\\\\Users\\\\lenovo\\\\Downloads\\\\Compressed\\\\web2py\\\\applications\\\\app1\\\\&#x27;, &#x27;C:\\\\Users\\\\lenovo\\\\Downloads\\\\Compressed\\\\web2py\\\\applications\\\\admin\\\\&#x27;, &#x27;C:\\\\Users\\\\lenovo\\\\Downloads\\\\Compressed\\\\web2py\\\\applications\\\\welcome\\\\&#x27;])</div></td></tr><tr><td style="font-weight:bold;vertical-align:top;">applications_parent</td><td style="vertical-align:top;">:</td><td><div>C:\\Users\\lenovo\\Downloads\\Compressed\\web2py</div></td></tr><tr><td style="font-weight:bold;vertical-align:top;">cmd_args</td><td style="vertical-align:top;">:</td><td><div><table></table></div></td></tr><tr><td style="font-weight:bold;vertical-align:top;">cmd_options</td><td style="vertical-align:top;">:</td><td><div>&lt;Values at 0x2f972b0: {&#x27;verbose&#x27;: False, &#x27;ip&#x27;: &#x27;127.0.0.1&#x27;, &#x27;debuglevel&#x27;: 30, &#x27;with_scheduler&#x27;: False, &#x27;ips&#x27;: [&#x27;10.9.10.23&#x27;, &#x27;fe80::806f:6494:2119:cd7b%4&#x27;], &#x27;shutdown_timeout&#x27;: 5, &#x27;taskbar&#x27;: False, &#x27;with_coverage&#x27;: False, &#x27;scheduler_groups&#x27;: None, &#x27;port&#x27;: 8000, &#x27;maxthreads&#x27;: None, &#x27;softcron&#x27;: False, &#x27;server_name&#x27;: &#x27;ITSMJTHING&#x27;, &#x27;bpython&#x27;: False, &#x27;nogui&#x27;: False, &#x27;pid_filename&#x27;: &#x27;httpserver.pid&#x27;, &#x27;extcron&#x27;: False, &#x27;runcron&#x27;: False, &#x27;run_system_tests&#x27;: False, &#x27;test&#x27;: None, &#x27;folder&#x27;: &#x27;C:\\\\Users\\\\lenovo\\\\Downloads\\\\Compressed\\\\web2py&#x27;, &#x27;config&#x27;: &#x27;&#x27;, &#x27;minthreads&#x27;: None, &#x27;shell&#x27;: None, &#x27;run&#x27;: &#x27;&#x27;, &#x27;log_filename&#x27;: &#x27;httpserver.log&#x27;, &#x27;profiler_dir&#x27;: None, &#x27;args&#x27;: [&#x27;&#x27;], &#x27;socket_timeout&#x27;: 5, &#x27;ssl_ca_certificate&#x27;: None, &#x27;scheduler&#x27;: None, &#x27;interfaces&#x27;: None, &#x27;ssl_private_key&#x27;: &#x27;&#x27;, &#x27;gae&#x27;: None, &#x27;password&#x27;: &#x27;&lt;ask&gt;&#x27;, &#x27;request_queue_size&#x27;: 5, &#x27;ssl_certificate&#x27;: &#x27;&#x27;, &#x27;cronjob&#x27;: False, &#x27;numthreads&#x27;: None, &#x27;quiet&#x27;: False, &#x27;import_models&#x27;: False, &#x27;timeout&#x27;: 10, &#x27;plain&#x27;: False, &#x27;nobanner&#x27;: False}&gt;</div></td></tr><tr><td style="font-weight:bold;vertical-align:top;">db_sessions</td><td style="vertical-align:top;">:</td><td><div>set([])</div></td></tr><tr><td style="font-weight:bold;vertical-align:top;">debugging</td><td style="vertical-align:top;">:</td><td><div>True</div></td></tr><tr><td style="font-weight:bold;vertical-align:top;">gluon_parent</td><td style="vertical-align:top;">:</td><td><div>C:\\Users\\lenovo\\Downloads\\Compressed\\web2py</div></td></tr><tr><td style="font-weight:bold;vertical-align:top;">http_accept</td><td style="vertical-align:top;">:</td><td><div>text/html,application/xhtml+xml,application/xml;q=0.9,image/webp,*/*;q=0.8</div></td></tr><tr><td style="font-weight:bold;vertical-align:top;">http_accept_encoding</td><td style="vertical-align:top;">:</td><td><div>gzip,deflate,sdch</div></td></tr><tr><td style="font-weight:bold;vertical-align:top;">http_accept_language</td><td style="vertical-align:top;">:</td><td><div>en-US,en;q=0.8</div></td></tr><tr><td style="font-weight:bold;vertical-align:top;">http_connection</td><td style="vertical-align:top;">:</td><td><div>keep-alive</div></td></tr><tr><td style="font-weight:bold;vertical-align:top;">http_cookie</td><td style="vertical-align:top;">:</td><td><div>session_id_welcome=10.9.10.23-5927d691-e76b-4ead-aecf-47bc2135770d; session_id_app1=10.9.10.23-69262882-f184-4154-8b5e-db815347c5e5; session_id_admin=10.9.10.23-158e6106-c356-4166-99fb-fabfb47ab226</div></td></tr><tr><td style="font-weight:bold;vertical-align:top;">http_host</td><td style="vertical-align:top;">:</td><td><div>10.9.10.23</div></td></tr><tr><td style="font-weight:bold;vertical-align:top;">http_referer</td><td style="vertical-align:top;">:</td><td><div>http://10.9.10.23/app1/default/home</div></td></tr><tr><td style="font-weight:bold;vertical-align:top;">http_user_agent</td><td style="vertical-align:top;">:</td><td><div>Mozilla/5.0 (Windows NT 6.3; WOW64) AppleWebKit/537.36 (KHTML, like Gecko) Chrome/38.0.2125.111 Safari/537.36</div></td></tr><tr><td style="font-weight:bold;vertical-align:top;">is_jython</td><td style="vertical-align:top;">:</td><td><div>False</div></td></tr><tr><td style="font-weight:bold;vertical-align:top;">is_pypy</td><td style="vertical-align:top;">:</td><td><div>False</div></td></tr><tr><td style="font-weight:bold;vertical-align:top;">is_source</td><td style="vertical-align:top;">:</td><td><div>False</div></td></tr><tr><td style="font-weight:bold;vertical-align:top;">local_hosts</td><td style="vertical-align:top;">:</td><td><div><table><tr><td><div>ITSMJTHING</div></td></tr><tr><td><div>::ffff:127.0.0.1</div></td></tr><tr><td><div>::1</div></td></tr><tr><td><div>fe80::806f:6494:2119:cd7b%4</div></td></tr><tr><td><div>10.9.10.23</div></td></tr><tr><td><div>127.0.0.1</div></td></tr></table></div></td></tr><tr><td style="font-weight:bold;vertical-align:top;">path_info</td><td style="vertical-align:top;">:</td><td><div>/app1/default/user/logout</div></td></tr><tr><td style="font-weight:bold;vertical-align:top;">query_string</td><td style="vertical-align:top;">:</td><td><div>_next=/app1/default/index</div></td></tr><tr><td style="font-weight:bold;vertical-align:top;">remote_addr</td><td style="vertical-align:top;">:</td><td><div>10.9.10.23</div></td></tr><tr><td style="font-weight:bold;vertical-align:top;">remote_port</td><td style="vertical-align:top;">:</td><td><div>64851</div></td></tr><tr><td style="font-weight:bold;vertical-align:top;">request_method</td><td style="vertical-align:top;">:</td><td><div>GET</div></td></tr><tr><td style="font-weight:bold;vertical-align:top;">request_uri</td><td style="vertical-align:top;">:</td><td><div>/app1/default/user/logout?_next=/app1/default/index</div></td></tr><tr><td style="font-weight:bold;vertical-align:top;">script_name</td><td style="vertical-align:top;">:</td><td><div></div></td></tr><tr><td style="font-weight:bold;vertical-align:top;">server_name</td><td style="vertical-align:top;">:</td><td><div>ITSMJTHING</div></td></tr><tr><td style="font-weight:bold;vertical-align:top;">server_port</td><td style="vertical-align:top;">:</td><td><div>80</div></td></tr><tr><td style="font-weight:bold;vertical-align:top;">server_protocol</td><td style="vertical-align:top;">:</td><td><div>HTTP/1.1</div></td></tr><tr><td style="font-weight:bold;vertical-align:top;">server_software</td><td style="vertical-align:top;">:</td><td><div>Rocket 1.2.6</div></td></tr><tr><td style="font-weight:bold;vertical-align:top;">web2py_path</td><td style="vertical-align:top;">:</td><td><div>C:\\Users\\lenovo\\Downloads\\Compressed\\web2py</div></td></tr><tr><td style="font-weight:bold;vertical-align:top;">web2py_version</td><td style="vertical-align:top;">:</td><td><div>2.9.11-stable+timestamp.2014.09.15.23.35.11</div></td></tr><tr><td style="font-weight:bold;vertical-align:top;">wsgi.errors</td><td style="vertical-align:top;">:</td><td><div>&lt;open file &#x27;&lt;stderr&gt;&#x27;, mode &#x27;w&#x27; at 0x003160D0&gt;</div></td></tr><tr><td style="font-weight:bold;vertical-align:top;">wsgi.file_wrapper</td><td style="vertical-align:top;">:</td><td><div>&lt;class wsgiref.util.FileWrapper at 0x02202B58&gt;</div></td></tr><tr><td style="font-weight:bold;vertical-align:top;">wsgi.input</td><td style="vertical-align:top;">:</td><td><div>&lt;socket._fileobject object at 0x07C7DAB0&gt;</div></td></tr><tr><td style="font-weight:bold;vertical-align:top;">wsgi.multiprocess</td><td style="vertical-align:top;">:</td><td><div>False</div></td></tr><tr><td style="font-weight:bold;vertical-align:top;">wsgi.multithread</td><td style="vertical-align:top;">:</td><td><div>True</div></td></tr><tr><td style="font-weight:bold;vertical-align:top;">wsgi.run_once</td><td style="vertical-align:top;">:</td><td><div>False</div></td></tr><tr><td style="font-weight:bold;vertical-align:top;">wsgi.url_scheme</td><td style="vertical-align:top;">:</td><td><div>http</div></td></tr><tr><td style="font-weight:bold;vertical-align:top;">wsgi.version</td><td style="vertical-align:top;">:</td><td><div><table><tr><td><div>1</div></td></tr><tr><td><div>0</div></td></tr></table></div></td></tr><tr><td style="font-weight:bold;vertical-align:top;">wsgi_errors</td><td style="vertical-align:top;">:</td><td><div>&lt;open file &#x27;&lt;stderr&gt;&#x27;, mode &#x27;w&#x27; at 0x003160D0&gt;</div></td></tr><tr><td style="font-weight:bold;vertical-align:top;">wsgi_file_wrapper</td><td style="vertical-align:top;">:</td><td><div>&lt;class wsgiref.util.FileWrapper at 0x02202B58&gt;</div></td></tr><tr><td style="font-weight:bold;vertical-align:top;">wsgi_input</td><td style="vertical-align:top;">:</td><td><div>&lt;socket._fileobject object at 0x07C7DAB0&gt;</div></td></tr><tr><td style="font-weight:bold;vertical-align:top;">wsgi_multiprocess</td><td style="vertical-align:top;">:</td><td><div>False</div></td></tr><tr><td style="font-weight:bold;vertical-align:top;">wsgi_multithread</td><td style="vertical-align:top;">:</td><td><div>True</div></td></tr><tr><td style="font-weight:bold;vertical-align:top;">wsgi_run_once</td><td style="vertical-align:top;">:</td><td><div>False</div></td></tr><tr><td style="font-weight:bold;vertical-align:top;">wsgi_url_scheme</td><td style="vertical-align:top;">:</td><td><div>http</div></td></tr><tr><td style="font-weight:bold;vertical-align:top;">wsgi_version</td><td style="vertical-align:top;">:</td><td><div><table><tr><td><div>1</div></td></tr><tr><td><div>0</div></td></tr></table></div></td></tr></table></div></td></tr><tr><td style="font-weight:bold;vertical-align:top;">extension</td><td style="vertical-align:top;">:</td><td><div>html</div></td></tr><tr><td style="font-weight:bold;vertical-align:top;">folder</td><td style="vertical-align:top;">:</td><td><div>C:\\Users\\lenovo\\Downloads\\Compressed\\web2py\\applications\\app1\\</div></td></tr><tr><td style="font-weight:bold;vertical-align:top;">function</td><td style="vertical-align:top;">:</td><td><div>user</div></td></tr><tr><td style="font-weight:bold;vertical-align:top;">global_settings</td><td style="vertical-align:top;">:</td><td><div><table><tr><td style="font-weight:bold;vertical-align:top;">app_folders</td><td style="vertical-align:top;">:</td><td><div>set([&#x27;C:\\\\Users\\\\lenovo\\\\Downloads\\\\Compressed\\\\web2py\\\\applications\\\\app1\\\\&#x27;, &#x27;C:\\\\Users\\\\lenovo\\\\Downloads\\\\Compressed\\\\web2py\\\\applications\\\\admin\\\\&#x27;, &#x27;C:\\\\Users\\\\lenovo\\\\Downloads\\\\Compressed\\\\web2py\\\\applications\\\\welcome\\\\&#x27;])</div></td></tr><tr><td style="font-weight:bold;vertical-align:top;">applications_parent</td><td style="vertical-align:top;">:</td><td><div>C:\\Users\\lenovo\\Downloads\\Compressed\\web2py</div></td></tr><tr><td style="font-weight:bold;vertical-align:top;">cmd_args</td><td style="vertical-align:top;">:</td><td><div><table></table></div></td></tr><tr><td style="font-weight:bold;vertical-align:top;">cmd_options</td><td style="vertical-align:top;">:</td><td><div>&lt;Values at 0x2f972b0: {&#x27;verbose&#x27;: False, &#x27;ip&#x27;: &#x27;127.0.0.1&#x27;, &#x27;debuglevel&#x27;: 30, &#x27;with_scheduler&#x27;: False, &#x27;ips&#x27;: [&#x27;10.9.10.23&#x27;, &#x27;fe80::806f:6494:2119:cd7b%4&#x27;], &#x27;shutdown_timeout&#x27;: 5, &#x27;taskbar&#x27;: False, &#x27;with_coverage&#x27;: False, &#x27;scheduler_groups&#x27;: None, &#x27;port&#x27;: 8000, &#x27;maxthreads&#x27;: None, &#x27;softcron&#x27;: False, &#x27;server_name&#x27;: &#x27;ITSMJTHING&#x27;, &#x27;bpython&#x27;: False, &#x27;nogui&#x27;: False, &#x27;pid_filename&#x27;: &#x27;httpserver.pid&#x27;, &#x27;extcron&#x27;: False, &#x27;runcron&#x27;: False, &#x27;run_system_tests&#x27;: False, &#x27;test&#x27;: None, &#x27;folder&#x27;: &#x27;C:\\\\Users\\\\lenovo\\\\Downloads\\\\Compressed\\\\web2py&#x27;, &#x27;config&#x27;: &#x27;&#x27;, &#x27;minthreads&#x27;: None, &#x27;shell&#x27;: None, &#x27;run&#x27;: &#x27;&#x27;, &#x27;log_filename&#x27;: &#x27;httpserver.log&#x27;, &#x27;profiler_dir&#x27;: None, &#x27;args&#x27;: [&#x27;&#x27;], &#x27;socket_timeout&#x27;: 5, &#x27;ssl_ca_certificate&#x27;: None, &#x27;scheduler&#x27;: None, &#x27;interfaces&#x27;: None, &#x27;ssl_private_key&#x27;: &#x27;&#x27;, &#x27;gae&#x27;: None, &#x27;password&#x27;: &#x27;&lt;ask&gt;&#x27;, &#x27;request_queue_size&#x27;: 5, &#x27;ssl_certificate&#x27;: &#x27;&#x27;, &#x27;cronjob&#x27;: False, &#x27;numthreads&#x27;: None, &#x27;quiet&#x27;: False, &#x27;import_models&#x27;: False, &#x27;timeout&#x27;: 10, &#x27;plain&#x27;: False, &#x27;nobanner&#x27;: False}&gt;</div></td></tr><tr><td style="font-weight:bold;vertical-align:top;">db_sessions</td><td style="vertical-align:top;">:</td><td><div>set([])</div></td></tr><tr><td style="font-weight:bold;vertical-align:top;">debugging</td><td style="vertical-align:top;">:</td><td><div>True</div></td></tr><tr><td style="font-weight:bold;vertical-align:top;">gluon_parent</td><td style="vertical-align:top;">:</td><td><div>C:\\Users\\lenovo\\Downloads\\Compressed\\web2py</div></td></tr><tr><td style="font-weight:bold;vertical-align:top;">is_jython</td><td style="vertical-align:top;">:</td><td><div>False</div></td></tr><tr><td style="font-weight:bold;vertical-align:top;">is_pypy</td><td style="vertical-align:top;">:</td><td><div>False</div></td></tr><tr><td style="font-weight:bold;vertical-align:top;">is_source</td><td style="vertical-align:top;">:</td><td><div>False</div></td></tr><tr><td style="font-weight:bold;vertical-align:top;">local_hosts</td><td style="vertical-align:top;">:</td><td><div><table><tr><td><div>ITSMJTHING</div></td></tr><tr><td><div>::ffff:127.0.0.1</div></td></tr><tr><td><div>::1</div></td></tr><tr><td><div>fe80::806f:6494:2119:cd7b%4</div></td></tr><tr><td><div>10.9.10.23</div></td></tr><tr><td><div>127.0.0.1</div></td></tr></table></div></td></tr><tr><td style="font-weight:bold;vertical-align:top;">web2py_version</td><td style="vertical-align:top;">:</td><td><div>2.9.11-stable+timestamp.2014.09.15.23.35.11</div></td></tr></table></div></td></tr><tr><td style="font-weight:bold;vertical-align:top;">is_https</td><td style="vertical-align:top;">:</td><td><div>False</div></td></tr><tr><td style="font-weight:bold;vertical-align:top;">is_local</td><td style="vertical-align:top;">:</td><td><div>True</div></td></tr><tr><td style="font-weight:bold;vertical-align:top;">is_restful</td><td style="vertical-align:top;">:</td><td><div>False</div></td></tr><tr><td style="font-weight:bold;vertical-align:top;">is_sheduler</td><td style="vertical-align:top;">:</td><td><div>None</div></td></tr><tr><td style="font-weight:bold;vertical-align:top;">is_shell</td><td style="vertical-align:top;">:</td><td><div>None</div></td></tr><tr><td style="font-weight:bold;vertical-align:top;">now</td><td style="vertical-align:top;">:</td><td><div>datetime.datetime(2014, 11, 5, 17, 0, 39, 282000)</div></td></tr><tr><td style="font-weight:bold;vertical-align:top;">raw_args</td><td style="vertical-align:top;">:</td><td><div>logout</div></td></tr><tr><td style="font-weight:bold;vertical-align:top;">raw_extension</td><td style="vertical-align:top;">:</td><td><div>None</div></td></tr><tr><td style="font-weight:bold;vertical-align:top;">url</td><td style="vertical-align:top;">:</td><td><div>/app1/default/user/logout</div></td></tr><tr><td style="font-weight:bold;vertical-align:top;">utcnow</td><td style="vertical-align:top;">:</td><td><div>datetime.datetime(2014, 11, 5, 11, 30, 39, 282000)</div></td></tr><tr><td style="font-weight:bold;vertical-align:top;">uuid</td><td style="vertical-align:top;">:</td><td><div>app1/10.9.10.23.2014-11-05.17-00-39.86397439-1330-4b9f-a4c0-34ff9c4a68ac</div></td></tr><tr><td style="font-weight:bold;vertical-align:top;">wsgi</td><td style="vertical-align:top;">:</td><td><div>&lt;gluon.main.LazyWSGI object at 0x07C89C70&gt;</div></td></tr></table></div>'
tRp62
sS'frames'
p63
(lp64
(dp65
S'file'
p66
S'C:\\Users\\lenovo\\Downloads\\Compressed\\web2py\\gluon\\restricted.py'
p67
sS'dump'
p68
(dp69
sS'lnum'
p70
I224
sS'lines'
p71
(dp72
sS'call'
p73
S"(code='# -*- coding: utf-8 -*-\\n# this file is released ...se,rules)\\n\\nresponse._vars=response._caller(user)\\n', environment={'A': <class 'gluon.html.A'>, 'ANY_OF': <class 'gluon.validators.ANY_OF'>, 'ASSIGNJS': <function ASSIGNJS>, 'Auth': <class 'gluon.tools.Auth'>, 'B': <class 'gluon.html.B'>, 'BEAUTIFY': <class 'gluon.html.BEAUTIFY'>, 'BODY': <class 'gluon.html.BODY'>, 'BR': <class 'gluon.html.BR'>, 'BUTTON': <class 'gluon.html.BUTTON'>, 'CAT': <class 'gluon.html.CAT'>, ...}, layer=r'C:\\Users\\lenovo\\Downloads\\Compressed\\web2py\\applications\\app1\\controllers/default.py')"
p74
sS'func'
p75
S'restricted'
p76
sa(dp77
g66
S'C:\\Users\\lenovo\\Downloads\\Compressed\\web2py\\applications\\app1\\controllers\\default.py'
p78
sg68
(dp79
sg70
I509
sg71
(dp80
I498
S'def api():'
p81
sI499
S'    """'
p82
sI500
S'    this is example of API with access control'
p83
sI501
S'    WEB2PY provides Hypermedia API (Collection+JSON) Experimental'
p84
sI502
S'    """'
p85
sI503
S'    from gluon.contrib.hypermedia import Collection'
p86
sI504
S'    rules = {'
p87
sI505
S"        '<tablename>': {'GET':{},'POST':{},'PUT':{},'DELETE':{}},"
p88
sI506
S'        }'
p89
sI507
S'    return Collection(db).process(request,response,rules)'
p90
ssg73
S'()'
p91
sg75
S'<module>'
p92
sa(dp93
g66
S'C:\\Users\\lenovo\\Downloads\\Compressed\\web2py\\gluon\\globals.py'
p94
sg68
(dp95
sg70
I392
sg71
(dp96
sg73
S'(f=<function user>)'
p97
sg75
S'<lambda>'
p98
sa(dp99
g66
S'C:\\Users\\lenovo\\Downloads\\Compressed\\web2py\\applications\\app1\\controllers\\default.py'
p100
sg68
(dp101
S'global auth'
p102
S'<gluon.tools.Auth object>'
p103
sS'form'
p104
S'undefined'
p105
sS'builtindict'
p106
S"<type 'dict'>"
p107
ssg70
I475
sg71
(dp108
I470
S'    use @auth.requires_login()'
p109
sI471
S"        @auth.requires_membership('group name')"
p110
sI472
S"        @auth.requires_permission('read','table name',record_id)"
p111
sI473
S'    to decorate functions that need access control'
p112
sI474
S'    """'
p113
sI475
S'    return dict(form=auth())'
p114
sI476
S''
sI477
S''
sI478
S'@cache.action()'
p115
sI479
S'def download():'
p116
ssg73
S'()'
p117
sg75
S'user'
p118
sa(dp119
g66
S'C:\\Users\\lenovo\\Downloads\\Compressed\\web2py\\gluon\\tools.py'
p120
sg68
(dp121
sg70
I1437
sg71
(dp122
sg73
S'(self=<gluon.tools.Auth object>)'
p123
sg75
S'__call__'
p124
sa(dp125
g66
S'C:\\Users\\lenovo\\Downloads\\Compressed\\web2py\\gluon\\tools.py'
p126
sg68
(dp127
sg70
I2646
sg71
(dp128
sg73
S"(self=<gluon.tools.Auth object>, next='/app1/default/index', onlogout=None, log='User %(id)s Logged-out')"
p129
sg75
S'logout'
p130
sa(dp131
g66
S'C:\\Users\\lenovo\\Downloads\\Compressed\\web2py\\gluon\\tools.py'
p132
sg68
(dp133
sg70
I2019
sg71
(dp134
sg73
S"(self=<gluon.tools.Auth object>, description='User %(id)s Logged-out', vars=<Row {'city': 'kj', 'first_name': 'a', 'last_nam...ddress': 'bn', 'registration_key': '', 'id': 8L}>, origin='auth')"
p135
sg75
S'log_event'
p136
sa(dp137
g66
S'C:\\Users\\lenovo\\Downloads\\Compressed\\web2py\\gluon\\dal.py'
p138
sg68
(dp139
sg70
I9317
sg71
(dp140
sg73
S"(self=<Table auth_event (id,time_stamp,client_ip,user_id,origin,description)>, **fields={'client_ip': '10.9.10.23', 'description': 'User 8 Logged-out', 'origin': 'auth', 'time_stamp': datetime.datetime(2014, 11, 5, 17, 0, 39, 282000), 'user_id': 8L})"
p141
sg75
S'insert'
p142
sa(dp143
g66
S'C:\\Users\\lenovo\\Downloads\\Compressed\\web2py\\gluon\\dal.py'
p144
sg68
(dp145
sg70
I1361
sg71
(dp146
sg73
S"(self=<gluon.dal.SQLiteAdapter object>, table=<Table auth_event (id,time_stamp,client_ip,user_id,origin,description)>, fields=[(<gluon.dal.Field object>, 'auth'), (<gluon.dal.Field object>, datetime.datetime(2014, 11, 5, 17, 0, 39, 282000)), (<gluon.dal.Field object>, '10.9.10.23'), (<gluon.dal.Field object>, 8L), (<gluon.dal.Field object>, 'User 8 Logged-out')])"
p147
sg75
g142
sasS'pyver'
p148
S'Python 2.7.6: C:\\Users\\lenovo\\Downloads\\Compressed\\web2py\\web2py.exe (prefix: )'
p149
sS'session'
p150
g61
(S'sW\x0e\x00\x00<div><table><tr><td style="font-weight:bold;vertical-align:top;">auth</td><td style="vertical-align:top;">:</td><td><div><table><tr><td style="font-weight:bold;vertical-align:top;">expiration</td><td style="vertical-align:top;">:</td><td><div>3600</div></td></tr><tr><td style="font-weight:bold;vertical-align:top;">hmac_key</td><td style="vertical-align:top;">:</td><td><div>d2f170bb-53bd-4f5d-bf7a-b35b078d7f86</div></td></tr><tr><td style="font-weight:bold;vertical-align:top;">last_visit</td><td style="vertical-align:top;">:</td><td><div>datetime.datetime(2014, 11, 5, 16, 58, 45, 102000)</div></td></tr><tr><td style="font-weight:bold;vertical-align:top;">remember_me</td><td style="vertical-align:top;">:</td><td><div>False</div></td></tr><tr><td style="font-weight:bold;vertical-align:top;">user</td><td style="vertical-align:top;">:</td><td><div><table><tr><td style="font-weight:bold;vertical-align:top;">address</td><td style="vertical-align:top;">:</td><td><div>bn</div></td></tr><tr><td style="font-weight:bold;vertical-align:top;">city</td><td style="vertical-align:top;">:</td><td><div>kj</div></td></tr><tr><td style="font-weight:bold;vertical-align:top;">email</td><td style="vertical-align:top;">:</td><td><div>mehuljain811@gmail.com</div></td></tr><tr><td style="font-weight:bold;vertical-align:top;">first_name</td><td style="vertical-align:top;">:</td><td><div>a</div></td></tr><tr><td style="font-weight:bold;vertical-align:top;">id</td><td style="vertical-align:top;">:</td><td><div>8L</div></td></tr><tr><td style="font-weight:bold;vertical-align:top;">last_name</td><td style="vertical-align:top;">:</td><td><div>Jain</div></td></tr><tr><td style="font-weight:bold;vertical-align:top;">phone</td><td style="vertical-align:top;">:</td><td><div>8765178249</div></td></tr><tr><td style="font-weight:bold;vertical-align:top;">registration_id</td><td style="vertical-align:top;">:</td><td><div></div></td></tr><tr><td style="font-weight:bold;vertical-align:top;">registration_key</td><td style="vertical-align:top;">:</td><td><div></div></td></tr><tr><td style="font-weight:bold;vertical-align:top;">reset_password_key</td><td style="vertical-align:top;">:</td><td><div></div></td></tr><tr><td style="font-weight:bold;vertical-align:top;">zip</td><td style="vertical-align:top;">:</td><td><div>2323</div></td></tr></table></div></td></tr><tr><td style="font-weight:bold;vertical-align:top;">user_groups</td><td style="vertical-align:top;">:</td><td><div><table><tr><td style="font-weight:bold;vertical-align:top;">9</td><td style="vertical-align:top;">:</td><td><div>user_8</div></td></tr></table></div></td></tr></table></div></td></tr><tr><td style="font-weight:bold;vertical-align:top;">auth_two_factor</td><td style="vertical-align:top;">:</td><td><div>None</div></td></tr><tr><td style="font-weight:bold;vertical-align:top;">auth_two_factor_enabled</td><td style="vertical-align:top;">:</td><td><div>False</div></td></tr><tr><td style="font-weight:bold;vertical-align:top;">auth_two_factor_tries_left</td><td style="vertical-align:top;">:</td><td><div>3</div></td></tr><tr><td style="font-weight:bold;vertical-align:top;">auth_two_factor_user</td><td style="vertical-align:top;">:</td><td><div>None</div></td></tr><tr><td style="font-weight:bold;vertical-align:top;">flash</td><td style="vertical-align:top;">:</td><td><div>None</div></td></tr><tr><td style="font-weight:bold;vertical-align:top;">last_orderby</td><td style="vertical-align:top;">:</td><td><div>None</div></td></tr><tr><td style="font-weight:bold;vertical-align:top;">last_query</td><td style="vertical-align:top;">:</td><td><div>db.auth_user.id&gt;0</div></td></tr></table></div>'
tRp151
sS'etype'
p152
S"<class 'sqlite3.IntegrityError'>"
p153
sS'date'
p154
S'Wed Nov 05 17:00:39 2014'
p155
sS'response'
p156
g61
(S's\x93\x1e\x00\x00<div><table><tr><td style="font-weight:bold;vertical-align:top;">body</td><td style="vertical-align:top;">:</td><td><div>&lt;cStringIO.StringO object at 0x07C899A0&gt;</div></td></tr><tr><td style="font-weight:bold;vertical-align:top;">cookies</td><td style="vertical-align:top;">:</td><td><div><table><tr><td style="font-weight:bold;vertical-align:top;">session_id_app1</td><td style="vertical-align:top;">:</td><td><div>10.9.10.23-69262882-f184-4154-8b5e-db815347c5e5<table><tr><td style="font-weight:bold;vertical-align:top;">comment</td><td style="vertical-align:top;">:</td><td><div></div></td></tr><tr><td style="font-weight:bold;vertical-align:top;">domain</td><td style="vertical-align:top;">:</td><td><div></div></td></tr><tr><td style="font-weight:bold;vertical-align:top;">expires</td><td style="vertical-align:top;">:</td><td><div></div></td></tr><tr><td style="font-weight:bold;vertical-align:top;">httponly</td><td style="vertical-align:top;">:</td><td><div></div></td></tr><tr><td style="font-weight:bold;vertical-align:top;">max-age</td><td style="vertical-align:top;">:</td><td><div></div></td></tr><tr><td style="font-weight:bold;vertical-align:top;">path</td><td style="vertical-align:top;">:</td><td><div>/</div></td></tr><tr><td style="font-weight:bold;vertical-align:top;">secure</td><td style="vertical-align:top;">:</td><td><div></div></td></tr><tr><td style="font-weight:bold;vertical-align:top;">version</td><td style="vertical-align:top;">:</td><td><div></div></td></tr></table></div></td></tr></table></div></td></tr><tr><td style="font-weight:bold;vertical-align:top;">delimiters</td><td style="vertical-align:top;">:</td><td><div><table><tr><td><div>{{</div></td></tr><tr><td><div>}}</div></td></tr></table></div></td></tr><tr><td style="font-weight:bold;vertical-align:top;">files</td><td style="vertical-align:top;">:</td><td><div><table></table></div></td></tr><tr><td style="font-weight:bold;vertical-align:top;">flash</td><td style="vertical-align:top;">:</td><td><div></div></td></tr><tr><td style="font-weight:bold;vertical-align:top;">form_label_separator</td><td style="vertical-align:top;">:</td><td><div>: </div></td></tr><tr><td style="font-weight:bold;vertical-align:top;">formstyle</td><td style="vertical-align:top;">:</td><td><div>table3cols</div></td></tr><tr><td style="font-weight:bold;vertical-align:top;">generic_patterns</td><td style="vertical-align:top;">:</td><td><div><table><tr><td><div>*</div></td></tr></table></div></td></tr><tr><td style="font-weight:bold;vertical-align:top;">google_analytics_id</td><td style="vertical-align:top;">:</td><td><div>None</div></td></tr><tr><td style="font-weight:bold;vertical-align:top;">headers</td><td style="vertical-align:top;">:</td><td><div><table><tr><td style="font-weight:bold;vertical-align:top;">X-Powered-By</td><td style="vertical-align:top;">:</td><td><div>web2py</div></td></tr></table></div></td></tr><tr><td style="font-weight:bold;vertical-align:top;">logo</td><td style="vertical-align:top;">:</td><td><div><a class="brand" href="/app1/default/home"><b>Incredible Varanasi</b><sup> MADS</sup></a></div></td></tr><tr><td style="font-weight:bold;vertical-align:top;">menu</td><td style="vertical-align:top;">:</td><td><div><table><tr><td><div><table><tr><td><div>Home</div></td></tr><tr><td><div>False</div></td></tr><tr><td><div>/app1/default/home</div></td></tr><tr><td><div><table></table></div></td></tr></table></div></td></tr><tr><td><div><table><tr><td><div><span class="highlighted">About Us</span></div></td></tr><tr><td><div>False</div></td></tr><tr><td><div>show</div></td></tr><tr><td><div><table><tr><td><div><table><tr><td><div>Contact</div></td></tr><tr><td><div>False</div></td></tr><tr><td><div>/app1/default/create</div></td></tr></table></div></td></tr></table></div></td></tr></table></div></td></tr></table></div></td></tr><tr><td style="font-weight:bold;vertical-align:top;">meta</td><td style="vertical-align:top;">:</td><td><div><table><tr><td style="font-weight:bold;vertical-align:top;">author</td><td style="vertical-align:top;">:</td><td><div>Mehul Jain &lt;mehul.jain.cse12@iitbhu.ac.in&gt;</div></td></tr><tr><td style="font-weight:bold;vertical-align:top;">generator</td><td style="vertical-align:top;">:</td><td><div>Web2py Web Framework</div></td></tr><tr><td style="font-weight:bold;vertical-align:top;">keywords</td><td style="vertical-align:top;">:</td><td><div>home</div></td></tr></table></div></td></tr><tr><td style="font-weight:bold;vertical-align:top;">models_to_run</td><td style="vertical-align:top;">:</td><td><div><table><tr><td><div>^\\w+\\.py$</div></td></tr><tr><td><div>^default/\\w+\\.py$</div></td></tr><tr><td><div>^default/user/\\w+\\.py$</div></td></tr></table></div></td></tr><tr><td style="font-weight:bold;vertical-align:top;">postprocessing</td><td style="vertical-align:top;">:</td><td><div><table></table></div></td></tr><tr><td style="font-weight:bold;vertical-align:top;">session_client</td><td style="vertical-align:top;">:</td><td><div>10.9.10.23</div></td></tr><tr><td style="font-weight:bold;vertical-align:top;">session_cookie_compression_level</td><td style="vertical-align:top;">:</td><td><div>None</div></td></tr><tr><td style="font-weight:bold;vertical-align:top;">session_cookie_expires</td><td style="vertical-align:top;">:</td><td><div>None</div></td></tr><tr><td style="font-weight:bold;vertical-align:top;">session_cookie_key</td><td style="vertical-align:top;">:</td><td><div>None</div></td></tr><tr><td style="font-weight:bold;vertical-align:top;">session_data_name</td><td style="vertical-align:top;">:</td><td><div>session_data_app1</div></td></tr><tr><td style="font-weight:bold;vertical-align:top;">session_file</td><td style="vertical-align:top;">:</td><td><div>&lt;open file &#x27;C:\\\\Users\\\\lenovo\\\\Downloads\\\\Compressed\\\\web2py\\\\applications\\\\app1\\\\sessions\\\\064\\\\0c8\\\\10.9.10.23-69262882-f184-4154-8b5e-db815347c5e5&#x27;, mode &#x27;rb+&#x27; at 0x0751FB20&gt;</div></td></tr><tr><td style="font-weight:bold;vertical-align:top;">session_filename</td><td style="vertical-align:top;">:</td><td><div>C:\\Users\\lenovo\\Downloads\\Compressed\\web2py\\applications\\app1\\sessions\\10.9.10.23-69262882-f184-4154-8b5e-db815347c5e5</div></td></tr><tr><td style="font-weight:bold;vertical-align:top;">session_hash</td><td style="vertical-align:top;">:</td><td><div>02f1ce691caa1c3b5232e5562eb108db</div></td></tr><tr><td style="font-weight:bold;vertical-align:top;">session_id</td><td style="vertical-align:top;">:</td><td><div>10.9.10.23-69262882-f184-4154-8b5e-db815347c5e5</div></td></tr><tr><td style="font-weight:bold;vertical-align:top;">session_id_name</td><td style="vertical-align:top;">:</td><td><div>session_id_app1</div></td></tr><tr><td style="font-weight:bold;vertical-align:top;">session_locked</td><td style="vertical-align:top;">:</td><td><div>True</div></td></tr><tr><td style="font-weight:bold;vertical-align:top;">session_masterapp</td><td style="vertical-align:top;">:</td><td><div>app1</div></td></tr><tr><td style="font-weight:bold;vertical-align:top;">session_new</td><td style="vertical-align:top;">:</td><td><div>False</div></td></tr><tr><td style="font-weight:bold;vertical-align:top;">session_storage_type</td><td style="vertical-align:top;">:</td><td><div>file</div></td></tr><tr><td style="font-weight:bold;vertical-align:top;">status</td><td style="vertical-align:top;">:</td><td><div>200</div></td></tr><tr><td style="font-weight:bold;vertical-align:top;">subtitle</td><td style="vertical-align:top;">:</td><td><div></div></td></tr><tr><td style="font-weight:bold;vertical-align:top;">title</td><td style="vertical-align:top;">:</td><td><div>App1</div></td></tr><tr><td style="font-weight:bold;vertical-align:top;">view</td><td style="vertical-align:top;">:</td><td><div>default/user.html</div></td></tr></table></div>'
tRp157
sS'locals'
p158
(dp159
S'fields'
p160
S"[(<gluon.dal.Field object>, 'auth'), (<gluon.dal.Field object>, datetime.datetime(2014, 11, 5, 17, 0, 39, 282000)), (<gluon.dal.Field object>, '10.9.10.23'), (<gluon.dal.Field object>, 8L), (<gluon.dal.Field object>, 'User 8 Logged-out')]"
p161
sS'self'
p162
S'<gluon.dal.SQLiteAdapter object>'
p163
sS'e'
S"IntegrityError('foreign key constraint failed',)"
p164
sS'table'
p165
S'<Table auth_event (id,time_stamp,client_ip,user_id,origin,description)>'
p166
sS'query'
p167
S'"INSERT INTO auth_event(origin,time_stamp,client_...05 17:00:39\',\'10.9.10.23\',8,\'User 8 Logged-out\');"'
p168
sssS'traceback'
p169
S'Traceback (most recent call last):\n  File "gluon/restricted.py", line 224, in restricted\n  File "C:\\Users\\lenovo\\Downloads\\Compressed\\web2py\\applications\\app1\\controllers/default.py", line 509, in <module>\n  File "gluon/globals.py", line 392, in <lambda>\n  File "C:\\Users\\lenovo\\Downloads\\Compressed\\web2py\\applications\\app1\\controllers/default.py", line 475, in user\n    return dict(form=auth())\n  File "gluon/tools.py", line 1437, in __call__\n  File "gluon/tools.py", line 2646, in logout\n  File "gluon/tools.py", line 2019, in log_event\n  File "gluon/dal.py", line 9317, in insert\n  File "gluon/dal.py", line 1361, in insert\nIntegrityError: foreign key constraint failed\n'
p170
s.