(dp1
S'output'
p2
S"<type 'exceptions.AttributeError'> 'NoneType' object has no attribute 'select'"
p3
sS'layer'
p4
S'C:\\Users\\lenovo\\Downloads\\Compressed\\web2py\\applications\\app1\\controllers/default.py'
p5
sS'code'
p6
S'# -*- coding: utf-8 -*-\n# this file is released under public domain and you can use without limitations\n\n#########################################################################\n## This is a sample controller\n## - index is the default action of any application\n## - user is required for authentication and authorization\n## - download is for downloading files uploaded in the db (does streaming)\n## - api is an example of Hypermedia API support and access control\n#########################################################################\ndef home():\n    response.flash = "welcome to incredible varanasi"\n    response.files.append(URL(\'static\', \'css/background.css\'))\n    response.files.append(URL(\'static\', \'css/grid.css\'))\n    return locals()\n\ndef heritage():\n    #hrei_rows = db(db.places.place_type=="heritage").select(orderby = ~db.places.rating)\n    form = SQLFORM.factory(Field(\'Current Location\', requires=IS_IN_DB(db, \'places.place_name\', \'%(place_name)s\')))\n    check_form = form.process()\n    if check_form.accepted:\n        t=form.components[0]\n        hrei_rows = db(db.place_distance.place2==t).select(db.place_distance.place1,db.place_distance.distance,orderby = db.place_distance.distance)\n        #hrei_near_rows = db.executesql(\'select place1,distance from place_distance where place2=selected_place order by distance\')\n    else:\n        hrei_rows = db.executesql(\'select place_name as place1,rating from places where place_type="heritage" order by rating desc\')\n    return locals()\n\ndef heri_place():\n    response.files.append(URL(\'static\', \'css/background_heritage.css\'))\n    response.files.append(URL(\'static\', \'css/box_heritage.css\'))\n    post = db.heritage_area(db.heritage_area.Name_HA==request.args(0)).select()\n\n    return locals()\n\n\n\ndef entertainment():\n    #hrei_rows = db(db.places.place_type=="heritage").select(orderby = ~db.places.rating)\n    form = SQLFORM.factory(Field(\'Current Location\', requires=IS_IN_DB(db, \'places.place_name\', \'%(place_name)s\')))\n    check_form = form.process()\n    if check_form.accepted:\n        t=form.components[0]\n        enter_rows = db(db.place_distance.place2==t).select(db.place_distance.place1,db.place_distance.distance,orderby = db.place_distance.distance)\n        #hrei_near_rows = db.executesql(\'select place1,distance from place_distance where place2=selected_place order by distance\')\n    else:\n        enter_rows = db.executesql(\'select place_name,rating from places where place_type="entertainment" order by rating desc\')\n    return locals()\n\ndef enter_place():\n    response.files.append(URL(\'static\', \'css/background_entertainment.css\'))\n    response.files.append(URL(\'static\', \'css/box_entertainment.css\'))\n    return locals()\n\n\n\ndef fuel_agency():\n    #hrei_rows = db(db.places.place_type=="heritage").select(orderby = ~db.places.rating)\n    form = SQLFORM.factory(Field(\'Current Location\', requires=IS_IN_DB(db, \'places.place_name\', \'%(place_name)s\')))\n    check_form = form.process()\n    if check_form.accepted:\n        t=form.components[0]\n        fag_rows = db(db.place_distance.place2==t).select(db.place_distance.place1,db.place_distance.distance,orderby = db.place_distance.distance)\n        #hrei_near_rows = db.executesql(\'select place1,distance from place_distance where place2=selected_place order by distance\')\n    else:\n        fag_rows = db.executesql(\'select place_name,rating from places where place_type="fuel agency" order by rating desc\')\n    return locals()\n\ndef fuelagency_place():\n    response.files.append(URL(\'static\', \'css/background_fuelagency.css\'))\n    response.files.append(URL(\'static\', \'css/box_fuel.css\'))\n    return locals()\n\n\n\n\ndef fuel_company():\n    #hrei_rows = db(db.places.place_type=="heritage").select(orderby = ~db.places.rating)\n    form = SQLFORM.factory(Field(\'Current Location\', requires=IS_IN_DB(db, \'places.place_name\', \'%(place_name)s\')))\n    check_form = form.process()\n    if check_form.accepted:\n        t=form.components[0]\n        fc_rows = db(db.place_distance.place2==t).select(db.place_distance.place1,db.place_distance.distance,orderby = db.place_distance.distance)\n        #hrei_near_rows = db.executesql(\'select place1,distance from place_distance where place2=selected_place order by distance\')\n    else:\n        fc_rows = db.executesql(\'select place_name,rating from places where place_type="fuel comapany" order by rating desc\')\n    return locals()\n\ndef fuelcompany_place():\n    response.files.append(URL(\'static\', \'css/background_fuelcompany.css\'))\n    response.files.append(URL(\'static\', \'css/box_fuel.css\'))\n    return locals()\n\n\n\ndef handloom():\n    #hrei_rows = db(db.places.place_type=="heritage").select(orderby = ~db.places.rating)\n    form = SQLFORM.factory(Field(\'Current Location\', requires=IS_IN_DB(db, \'places.place_name\', \'%(place_name)s\')))\n    check_form = form.process()\n    if check_form.accepted:\n        t=form.components[0]\n        hand_rows = db(db.place_distance.place2==t).select(db.place_distance.place1,db.place_distance.distance,orderby = db.place_distance.distance)\n        #hrei_near_rows = db.executesql(\'select place1,distance from place_distance where place2=selected_place order by distance\')\n    else:\n        hand_rows = db.executesql(\'select place_name,rating from places where place_type="handloom" order by rating desc\')\n    return locals()\n\ndef handloom_place():\n    response.files.append(URL(\'static\', \'css/background_handloom.css\'))\n    response.files.append(URL(\'static\', \'css/box_handloom.css\'))\n    return locals()\n\n\n\ndef hotel():\n    #hrei_rows = db(db.places.place_type=="heritage").select(orderby = ~db.places.rating)\n    form = SQLFORM.factory(Field(\'Current Location\', requires=IS_IN_DB(db, \'places.place_name\', \'%(place_name)s\')))\n    check_form = form.process()\n    if check_form.accepted:\n        t=form.components[0]\n        hotel_rows = db(db.place_distance.place2==t).select(db.place_distance.place1,db.place_distance.distance,orderby = db.place_distance.distance)\n        #hrei_near_rows = db.executesql(\'select place1,distance from place_distance where place2=selected_place order by distance\')\n    else:\n        hotel_rows = db.executesql(\'select place_name,rating from places where place_type="hotel" order by rating desc\')\n    return locals()\n\n\ndef hotel_place():\n    response.files.append(URL(\'static\', \'css/background_hotel.css\'))\n    response.files.append(URL(\'static\', \'css/box_entertainment.css\'))\n    return locals()\n\n\n\ndef recreation():\n    #hrei_rows = db(db.places.place_type=="heritage").select(orderby = ~db.places.rating)\n    form = SQLFORM.factory(Field(\'Current Location\', requires=IS_IN_DB(db, \'places.place_name\', \'%(place_name)s\')))\n    check_form = form.process()\n    if check_form.accepted:\n        t=form.components[0]\n        rec_rows = db(db.place_distance.place2==t).select(db.place_distance.place1,db.place_distance.distance,orderby = db.place_distance.distance)\n        #hrei_near_rows = db.executesql(\'select place1,distance from place_distance where place2=selected_place order by distance\')\n    else:\n        rec_rows = db.executesql(\'select place_name,rating from places where place_type="recreation" order by rating desc\')\n    return locals()\n\ndef recreat_place():\n    response.files.append(URL(\'static\', \'css/background_recreation.css\'))\n    response.files.append(URL(\'static\', \'css/box_entertainment.css\'))\n    return locals()\n\n\n\ndef restaurant():\n    #hrei_rows = db(db.places.place_type=="heritage").select(orderby = ~db.places.rating)\n    form = SQLFORM.factory(Field(\'Current Location\', requires=IS_IN_DB(db, \'places.place_name\', \'%(place_name)s\')))\n    check_form = form.process()\n    if check_form.accepted:\n        t=form.components[0]\n        restaur_rows = db(db.place_distance.place2==t).select(db.place_distance.place1,db.place_distance.distance,orderby = db.place_distance.distance)\n        #hrei_near_rows = db.executesql(\'select place1,distance from place_distance where place2=selected_place order by distance\')\n    else:\n        restaur_rows = db.executesql(\'select place_name,rating from places where place_type="restaurant" order by rating desc\')\n    return locals()\n\ndef restaur_place():\n    response.files.append(URL(\'static\', \'css/background_restaurant.css\'))\n    response.files.append(URL(\'static\', \'css/box_fuel.css\'))\n    return locals()\n\n\n\ndef spiritual():\n    #hrei_rows = db(db.places.place_type=="heritage").select(orderby = ~db.places.rating)\n    form = SQLFORM.factory(Field(\'Current Location\', requires=IS_IN_DB(db, \'places.place_name\', \'%(place_name)s\')))\n    check_form = form.process()\n    if check_form.accepted:\n        t=form.components[0]\n        spirit_rows = db(db.place_distance.place2==t).select(db.place_distance.place1,db.place_distance.distance,orderby = db.place_distance.distance)\n        #hrei_near_rows = db.executesql(\'select place1,distance from place_distance where place2=selected_place order by distance\')\n    else:\n        spirit_rows = db.executesql(\'select place_name,rating from places where place_type="spiritual" order by rating desc\')\n    return locals()\n\ndef spirit_place():\n    response.files.append(URL(\'static\', \'css/background_spiritual.css\'))\n    response.files.append(URL(\'static\', \'css/box_spiritual.css\'))\n    return locals()\n\n\n\ndef taxi_service():\n    #hrei_rows = db(db.places.place_type=="heritage").select(orderby = ~db.places.rating)\n    form = SQLFORM.factory(Field(\'Current Location\', requires=IS_IN_DB(db, \'places.place_name\', \'%(place_name)s\')))\n    check_form = form.process()\n    if check_form.accepted:\n        t=form.components[0]\n        taxi_rows = db(db.place_distance.place2==t).select(db.place_distance.place1,db.place_distance.distance,orderby = db.place_distance.distance)\n        #hrei_near_rows = db.executesql(\'select place1,distance from place_distance where place2=selected_place order by distance\')\n    else:\n        taxi_rows = db.executesql(\'select place_name,rating from places where place_type="taxi service" order by rating desc\')\n    return locals()\n\ndef taxi_place():\n    response.files.append(URL(\'static\', \'css/background_taxiservice.css\'))\n    response.files.append(URL(\'static\', \'css/box_taxiservice.css\'))\n    return locals()\n\n\ndef travel_agency():\n    #hrei_rows = db(db.places.place_type=="heritage").select(orderby = ~db.places.rating)\n    form = SQLFORM.factory(Field(\'Current Location\', requires=IS_IN_DB(db, \'places.place_name\', \'%(place_name)s\')))\n    check_form = form.process()\n    if check_form.accepted:\n        t=form.components[0]\n        travel_rows = db(db.place_distance.place2==t).select(db.place_distance.place1,db.place_distance.distance,orderby = db.place_distance.distance)\n        #hrei_near_rows = db.executesql(\'select place1,distance from place_distance where place2=selected_place order by distance\')\n    else:\n        travel_rows = db.executesql(\'select place_name,rating from places where place_type="travel agency" order by rating desc\')\n    return locals()\n\ndef travel_place():\n    response.files.append(URL(\'static\', \'css/background_travelagency.css\'))\n    response.files.append(URL(\'static\', \'css/box_fuel.css\'))\n    return locals()\n\n\n\ndef bank():\n    #hrei_rows = db(db.places.place_type=="heritage").select(orderby = ~db.places.rating)\n    form = SQLFORM.factory(Field(\'Current Location\', requires=IS_IN_DB(db, \'places.place_name\', \'%(place_name)s\')))\n    check_form = form.process()\n    if check_form.accepted:\n        t=form.components[0]\n        bank_rows = db(db.place_distance.place2==t).select(db.place_distance.place1,db.place_distance.distance,orderby = db.place_distance.distance)\n        #hrei_near_rows = db.executesql(\'select place1,distance from place_distance where place2=selected_place order by distance\')\n    else:\n        bank_rows = db.executesql(\'select place_name,rating from places where place_type="bank" order by rating desc\')\n    return locals()\n\ndef bank_place():\n    response.files.append(URL(\'static\', \'css/background_bank.css\'))\n    response.files.append(URL(\'static\', \'css/box_bank.css\'))\n    response.files.append(URL(\'static\', \'css/box_bank_contact.css\'))\n    return locals()\n\n\n\n\ndef index():\n    """\n    example action using the internationalization operator T and flash\n    rendered by views/default/index.html or views/generic.html\n\n    if you need a simple wiki simply replace the two lines below with:\n    return auth.wiki()\n    """\n    rows = db(db.blog_post).select()\n    #response.flash = T("Welcome to Incredible Varanasi")\n    return locals()\n@auth.requires_login()\ndef create():\n    db.blog_post.created_on.default = request.now\n    db.blog_post.created_on.writable = False\n    db.blog_post.created_on.readable = False\n    message = "Blog Post"\n    form = SQLFORM(db.blog_post).process()\n    if form.accepted: \n        session.flash = "Posted!!"\n        redirect(URL(\'index\'))\n    return locals()\n\n@auth.requires_membership(\'Managers\')\ndef manage():\n    grid = SQLFORM.grid(db.blog_post)\n    return locals()\n\n\ndef show():\n    post = db.blog_post(request.args(0,cast=int))\n    return locals()\n\n\ndef user():\n    """\n    exposes:\n    http://..../[app]/default/user/login\n    http://..../[app]/default/user/logout\n    http://..../[app]/default/user/register\n    http://..../[app]/default/user/profile\n    http://..../[app]/default/user/retrieve_password\n    http://..../[app]/default/user/change_password\n    http://..../[app]/default/user/manage_users (requires membership in\n    use @auth.requires_login()\n        @auth.requires_membership(\'group name\')\n        @auth.requires_permission(\'read\',\'table name\',record_id)\n    to decorate functions that need access control\n    """\n    return dict(form=auth())\n\n\n@cache.action()\ndef download():\n    """\n    allows downloading of uploaded files\n    http://..../[app]/default/download/[filename]\n    """\n    return response.download(request, db)\n\n\ndef call():\n    """\n    exposes services. for example:\n    http://..../[app]/default/call/jsonrpc\n    decorate with @services.jsonrpc the functions to expose\n    supports xml, json, xmlrpc, jsonrpc, amfrpc, rss, csv\n    """\n    return service()\n\n\n@auth.requires_login() \ndef api():\n    """\n    this is example of API with access control\n    WEB2PY provides Hypermedia API (Collection+JSON) Experimental\n    """\n    from gluon.contrib.hypermedia import Collection\n    rules = {\n        \'<tablename>\': {\'GET\':{},\'POST\':{},\'PUT\':{},\'DELETE\':{}},\n        }\n    return Collection(db).process(request,response,rules)\n\nresponse._vars=response._caller(heri_place)\n'
p7
sS'snapshot'
p8
(dp9
S'exception'
p10
(dp11
S'__hash__'
p12
S"<method-wrapper '__hash__' of exceptions.AttributeError object>"
p13
sS'__setattr__'
p14
S"<method-wrapper '__setattr__' of exceptions.AttributeError object>"
p15
sS'__reduce_ex__'
p16
S'<built-in method __reduce_ex__ of exceptions.AttributeError object>'
p17
sS'__getslice__'
p18
S"<method-wrapper '__getslice__' of exceptions.AttributeError object>"
p19
sS'__getitem__'
p20
S"<method-wrapper '__getitem__' of exceptions.AttributeError object>"
p21
sS'__setstate__'
p22
S'<built-in method __setstate__ of exceptions.AttributeError object>'
p23
sS'__reduce__'
p24
S'<built-in method __reduce__ of exceptions.AttributeError object>'
p25
sS'__str__'
p26
S"<method-wrapper '__str__' of exceptions.AttributeError object>"
p27
sS'__format__'
p28
S'<built-in method __format__ of exceptions.AttributeError object>'
p29
sS'__getattribute__'
p30
S"<method-wrapper '__getattribute__' of exceptions.AttributeError object>"
p31
sS'__class__'
p32
S"<type 'exceptions.AttributeError'>"
p33
sS'__unicode__'
p34
S'<built-in method __unicode__ of exceptions.AttributeError object>'
p35
sS'__delattr__'
p36
S"<method-wrapper '__delattr__' of exceptions.AttributeError object>"
p37
sS'__subclasshook__'
p38
S'<built-in method __subclasshook__ of type object>'
p39
sS'__repr__'
p40
S"<method-wrapper '__repr__' of exceptions.AttributeError object>"
p41
sS'args'
p42
S'("\'NoneType\' object has no attribute \'select\'",)'
p43
sS'__dict__'
p44
S'{}'
p45
sS'__sizeof__'
p46
S'<built-in method __sizeof__ of exceptions.AttributeError object>'
p47
sS'__doc__'
p48
S"'Attribute not found.'"
p49
sS'__init__'
p50
S"<method-wrapper '__init__' of exceptions.AttributeError object>"
p51
sS'__new__'
p52
S'<built-in method __new__ of type object>'
p53
ssS'evalue'
p54
S"'NoneType' object has no attribute 'select'"
p55
sS'request'
p56
cgluon.html
XML_unpickle
p57
(S'sm]\x00\x00<div><table><tr><td style="font-weight:bold;vertical-align:top;">ajax</td><td style="vertical-align:top;">:</td><td><div>False</div></td></tr><tr><td style="font-weight:bold;vertical-align:top;">application</td><td style="vertical-align:top;">:</td><td><div>app1</div></td></tr><tr><td style="font-weight:bold;vertical-align:top;">args</td><td style="vertical-align:top;">:</td><td><div><table><tr><td><div>3</div></td></tr></table></div></td></tr><tr><td style="font-weight:bold;vertical-align:top;">cid</td><td style="vertical-align:top;">:</td><td><div>None</div></td></tr><tr><td style="font-weight:bold;vertical-align:top;">client</td><td style="vertical-align:top;">:</td><td><div>127.0.0.1</div></td></tr><tr><td style="font-weight:bold;vertical-align:top;">controller</td><td style="vertical-align:top;">:</td><td><div>default</div></td></tr><tr><td style="font-weight:bold;vertical-align:top;">cookies</td><td style="vertical-align:top;">:</td><td><div><table><tr><td style="font-weight:bold;vertical-align:top;">session_id_admin</td><td style="vertical-align:top;">:</td><td><div>127.0.0.1-173082b4-f8b4-4ed0-a101-f5dd02bd8aa4<table><tr><td style="font-weight:bold;vertical-align:top;">comment</td><td style="vertical-align:top;">:</td><td><div></div></td></tr><tr><td style="font-weight:bold;vertical-align:top;">domain</td><td style="vertical-align:top;">:</td><td><div></div></td></tr><tr><td style="font-weight:bold;vertical-align:top;">expires</td><td style="vertical-align:top;">:</td><td><div></div></td></tr><tr><td style="font-weight:bold;vertical-align:top;">httponly</td><td style="vertical-align:top;">:</td><td><div></div></td></tr><tr><td style="font-weight:bold;vertical-align:top;">max-age</td><td style="vertical-align:top;">:</td><td><div></div></td></tr><tr><td style="font-weight:bold;vertical-align:top;">path</td><td style="vertical-align:top;">:</td><td><div></div></td></tr><tr><td style="font-weight:bold;vertical-align:top;">secure</td><td style="vertical-align:top;">:</td><td><div></div></td></tr><tr><td style="font-weight:bold;vertical-align:top;">version</td><td style="vertical-align:top;">:</td><td><div></div></td></tr></table></div></td></tr><tr><td style="font-weight:bold;vertical-align:top;">session_id_app1</td><td style="vertical-align:top;">:</td><td><div>127.0.0.1-b458c4c1-aa2c-4c12-bfed-707ce65e5728<table><tr><td style="font-weight:bold;vertical-align:top;">comment</td><td style="vertical-align:top;">:</td><td><div></div></td></tr><tr><td style="font-weight:bold;vertical-align:top;">domain</td><td style="vertical-align:top;">:</td><td><div></div></td></tr><tr><td style="font-weight:bold;vertical-align:top;">expires</td><td style="vertical-align:top;">:</td><td><div></div></td></tr><tr><td style="font-weight:bold;vertical-align:top;">httponly</td><td style="vertical-align:top;">:</td><td><div></div></td></tr><tr><td style="font-weight:bold;vertical-align:top;">max-age</td><td style="vertical-align:top;">:</td><td><div></div></td></tr><tr><td style="font-weight:bold;vertical-align:top;">path</td><td style="vertical-align:top;">:</td><td><div></div></td></tr><tr><td style="font-weight:bold;vertical-align:top;">secure</td><td style="vertical-align:top;">:</td><td><div></div></td></tr><tr><td style="font-weight:bold;vertical-align:top;">version</td><td style="vertical-align:top;">:</td><td><div></div></td></tr></table></div></td></tr><tr><td style="font-weight:bold;vertical-align:top;">session_id_welcome</td><td style="vertical-align:top;">:</td><td><div>127.0.0.1-3ebe79a1-bb7e-4587-b9b2-d13925252830<table><tr><td style="font-weight:bold;vertical-align:top;">comment</td><td style="vertical-align:top;">:</td><td><div></div></td></tr><tr><td style="font-weight:bold;vertical-align:top;">domain</td><td style="vertical-align:top;">:</td><td><div></div></td></tr><tr><td style="font-weight:bold;vertical-align:top;">expires</td><td style="vertical-align:top;">:</td><td><div></div></td></tr><tr><td style="font-weight:bold;vertical-align:top;">httponly</td><td style="vertical-align:top;">:</td><td><div></div></td></tr><tr><td style="font-weight:bold;vertical-align:top;">max-age</td><td style="vertical-align:top;">:</td><td><div></div></td></tr><tr><td style="font-weight:bold;vertical-align:top;">path</td><td style="vertical-align:top;">:</td><td><div></div></td></tr><tr><td style="font-weight:bold;vertical-align:top;">secure</td><td style="vertical-align:top;">:</td><td><div></div></td></tr><tr><td style="font-weight:bold;vertical-align:top;">version</td><td style="vertical-align:top;">:</td><td><div></div></td></tr></table></div></td></tr></table></div></td></tr><tr><td style="font-weight:bold;vertical-align:top;">env</td><td style="vertical-align:top;">:</td><td><div><table><tr><td style="font-weight:bold;vertical-align:top;">HTTP_ACCEPT</td><td style="vertical-align:top;">:</td><td><div>text/html,application/xhtml+xml,application/xml;q=0.9,image/webp,*/*;q=0.8</div></td></tr><tr><td style="font-weight:bold;vertical-align:top;">HTTP_ACCEPT_ENCODING</td><td style="vertical-align:top;">:</td><td><div>gzip,deflate,sdch</div></td></tr><tr><td style="font-weight:bold;vertical-align:top;">HTTP_ACCEPT_LANGUAGE</td><td style="vertical-align:top;">:</td><td><div>en-US,en;q=0.8</div></td></tr><tr><td style="font-weight:bold;vertical-align:top;">HTTP_CONNECTION</td><td style="vertical-align:top;">:</td><td><div>keep-alive</div></td></tr><tr><td style="font-weight:bold;vertical-align:top;">HTTP_COOKIE</td><td style="vertical-align:top;">:</td><td><div>__utma=96992031.1615220688.1414529826.1414529826.1414529826.1; __utmz=96992031.1414529826.1.1.utmcsr=(direct)|utmccn=(direct)|utmcmd=(none); session_id_welcome=127.0.0.1-3ebe79a1-bb7e-4587-b9b2-d13925252830; session_id_admin=127.0.0.1-173082b4-f8b4-4ed0-a101-f5dd02bd8aa4; session_id_app1=127.0.0.1-b458c4c1-aa2c-4c12-bfed-707ce65e5728</div></td></tr><tr><td style="font-weight:bold;vertical-align:top;">HTTP_HOST</td><td style="vertical-align:top;">:</td><td><div>127.0.0.1:8000</div></td></tr><tr><td style="font-weight:bold;vertical-align:top;">HTTP_REFERER</td><td style="vertical-align:top;">:</td><td><div>http://127.0.0.1:8000/app1/default/heritage</div></td></tr><tr><td style="font-weight:bold;vertical-align:top;">HTTP_USER_AGENT</td><td style="vertical-align:top;">:</td><td><div>Mozilla/5.0 (Windows NT 6.3; WOW64) AppleWebKit/537.36 (KHTML, like Gecko) Chrome/38.0.2125.111 Safari/537.36</div></td></tr><tr><td style="font-weight:bold;vertical-align:top;">PATH_INFO</td><td style="vertical-align:top;">:</td><td><div>/app1/default/heri_place/3</div></td></tr><tr><td style="font-weight:bold;vertical-align:top;">QUERY_STRING</td><td style="vertical-align:top;">:</td><td><div></div></td></tr><tr><td style="font-weight:bold;vertical-align:top;">REMOTE_ADDR</td><td style="vertical-align:top;">:</td><td><div>127.0.0.1</div></td></tr><tr><td style="font-weight:bold;vertical-align:top;">REMOTE_PORT</td><td style="vertical-align:top;">:</td><td><div>50381</div></td></tr><tr><td style="font-weight:bold;vertical-align:top;">REQUEST_METHOD</td><td style="vertical-align:top;">:</td><td><div>GET</div></td></tr><tr><td style="font-weight:bold;vertical-align:top;">SCRIPT_NAME</td><td style="vertical-align:top;">:</td><td><div></div></td></tr><tr><td style="font-weight:bold;vertical-align:top;">SERVER_NAME</td><td style="vertical-align:top;">:</td><td><div>ITSMJTHING</div></td></tr><tr><td style="font-weight:bold;vertical-align:top;">SERVER_PORT</td><td style="vertical-align:top;">:</td><td><div>8000</div></td></tr><tr><td style="font-weight:bold;vertical-align:top;">SERVER_PROTOCOL</td><td style="vertical-align:top;">:</td><td><div>HTTP/1.1</div></td></tr><tr><td style="font-weight:bold;vertical-align:top;">SERVER_SOFTWARE</td><td style="vertical-align:top;">:</td><td><div>Rocket 1.2.6</div></td></tr><tr><td style="font-weight:bold;vertical-align:top;">app_folders</td><td style="vertical-align:top;">:</td><td><div>set([&#x27;C:\\\\Users\\\\lenovo\\\\Downloads\\\\Compressed\\\\web2py\\\\applications\\\\admin\\\\&#x27;, &#x27;C:\\\\Users\\\\lenovo\\\\Downloads\\\\Compressed\\\\web2py\\\\applications\\\\app1\\\\&#x27;, &#x27;C:\\\\Users\\\\lenovo\\\\Downloads\\\\Compressed\\\\web2py\\\\applications\\\\welcome\\\\&#x27;])</div></td></tr><tr><td style="font-weight:bold;vertical-align:top;">applications_parent</td><td style="vertical-align:top;">:</td><td><div>C:\\Users\\lenovo\\Downloads\\Compressed\\web2py</div></td></tr><tr><td style="font-weight:bold;vertical-align:top;">cmd_args</td><td style="vertical-align:top;">:</td><td><div><table></table></div></td></tr><tr><td style="font-weight:bold;vertical-align:top;">cmd_options</td><td style="vertical-align:top;">:</td><td><div>&lt;Values at 0x2dc62b0: {&#x27;verbose&#x27;: False, &#x27;ip&#x27;: &#x27;127.0.0.1&#x27;, &#x27;debuglevel&#x27;: 30, &#x27;with_scheduler&#x27;: False, &#x27;ips&#x27;: [&#x27;127.0.0.1&#x27;, &#x27;::1&#x27;], &#x27;shutdown_timeout&#x27;: 5, &#x27;taskbar&#x27;: False, &#x27;with_coverage&#x27;: False, &#x27;scheduler_groups&#x27;: None, &#x27;port&#x27;: 8000, &#x27;maxthreads&#x27;: None, &#x27;softcron&#x27;: False, &#x27;server_name&#x27;: &#x27;ITSMJTHING&#x27;, &#x27;bpython&#x27;: False, &#x27;nogui&#x27;: False, &#x27;pid_filename&#x27;: &#x27;httpserver.pid&#x27;, &#x27;extcron&#x27;: False, &#x27;runcron&#x27;: False, &#x27;run_system_tests&#x27;: False, &#x27;test&#x27;: None, &#x27;folder&#x27;: &#x27;C:\\\\Users\\\\lenovo\\\\Downloads\\\\Compressed\\\\web2py&#x27;, &#x27;config&#x27;: &#x27;&#x27;, &#x27;minthreads&#x27;: None, &#x27;shell&#x27;: None, &#x27;run&#x27;: &#x27;&#x27;, &#x27;log_filename&#x27;: &#x27;httpserver.log&#x27;, &#x27;profiler_dir&#x27;: None, &#x27;args&#x27;: [&#x27;&#x27;], &#x27;socket_timeout&#x27;: 5, &#x27;ssl_ca_certificate&#x27;: None, &#x27;scheduler&#x27;: None, &#x27;interfaces&#x27;: None, &#x27;ssl_private_key&#x27;: &#x27;&#x27;, &#x27;gae&#x27;: None, &#x27;password&#x27;: &#x27;&lt;ask&gt;&#x27;, &#x27;request_queue_size&#x27;: 5, &#x27;ssl_certificate&#x27;: &#x27;&#x27;, &#x27;cronjob&#x27;: False, &#x27;numthreads&#x27;: None, &#x27;quiet&#x27;: False, &#x27;import_models&#x27;: False, &#x27;timeout&#x27;: 10, &#x27;plain&#x27;: False, &#x27;nobanner&#x27;: False}&gt;</div></td></tr><tr><td style="font-weight:bold;vertical-align:top;">db_sessions</td><td style="vertical-align:top;">:</td><td><div>set([])</div></td></tr><tr><td style="font-weight:bold;vertical-align:top;">debugging</td><td style="vertical-align:top;">:</td><td><div>True</div></td></tr><tr><td style="font-weight:bold;vertical-align:top;">gluon_parent</td><td style="vertical-align:top;">:</td><td><div>C:\\Users\\lenovo\\Downloads\\Compressed\\web2py</div></td></tr><tr><td style="font-weight:bold;vertical-align:top;">http_accept</td><td style="vertical-align:top;">:</td><td><div>text/html,application/xhtml+xml,application/xml;q=0.9,image/webp,*/*;q=0.8</div></td></tr><tr><td style="font-weight:bold;vertical-align:top;">http_accept_encoding</td><td style="vertical-align:top;">:</td><td><div>gzip,deflate,sdch</div></td></tr><tr><td style="font-weight:bold;vertical-align:top;">http_accept_language</td><td style="vertical-align:top;">:</td><td><div>en-US,en;q=0.8</div></td></tr><tr><td style="font-weight:bold;vertical-align:top;">http_connection</td><td style="vertical-align:top;">:</td><td><div>keep-alive</div></td></tr><tr><td style="font-weight:bold;vertical-align:top;">http_cookie</td><td style="vertical-align:top;">:</td><td><div>__utma=96992031.1615220688.1414529826.1414529826.1414529826.1; __utmz=96992031.1414529826.1.1.utmcsr=(direct)|utmccn=(direct)|utmcmd=(none); session_id_welcome=127.0.0.1-3ebe79a1-bb7e-4587-b9b2-d13925252830; session_id_admin=127.0.0.1-173082b4-f8b4-4ed0-a101-f5dd02bd8aa4; session_id_app1=127.0.0.1-b458c4c1-aa2c-4c12-bfed-707ce65e5728</div></td></tr><tr><td style="font-weight:bold;vertical-align:top;">http_host</td><td style="vertical-align:top;">:</td><td><div>127.0.0.1:8000</div></td></tr><tr><td style="font-weight:bold;vertical-align:top;">http_referer</td><td style="vertical-align:top;">:</td><td><div>http://127.0.0.1:8000/app1/default/heritage</div></td></tr><tr><td style="font-weight:bold;vertical-align:top;">http_user_agent</td><td style="vertical-align:top;">:</td><td><div>Mozilla/5.0 (Windows NT 6.3; WOW64) AppleWebKit/537.36 (KHTML, like Gecko) Chrome/38.0.2125.111 Safari/537.36</div></td></tr><tr><td style="font-weight:bold;vertical-align:top;">is_jython</td><td style="vertical-align:top;">:</td><td><div>False</div></td></tr><tr><td style="font-weight:bold;vertical-align:top;">is_pypy</td><td style="vertical-align:top;">:</td><td><div>False</div></td></tr><tr><td style="font-weight:bold;vertical-align:top;">is_source</td><td style="vertical-align:top;">:</td><td><div>False</div></td></tr><tr><td style="font-weight:bold;vertical-align:top;">local_hosts</td><td style="vertical-align:top;">:</td><td><div><table><tr><td><div>::1</div></td></tr><tr><td><div>::ffff:127.0.0.1</div></td></tr><tr><td><div>127.0.0.1</div></td></tr><tr><td><div>ITSMJTHING</div></td></tr></table></div></td></tr><tr><td style="font-weight:bold;vertical-align:top;">path_info</td><td style="vertical-align:top;">:</td><td><div>/app1/default/heri_place/3</div></td></tr><tr><td style="font-weight:bold;vertical-align:top;">query_string</td><td style="vertical-align:top;">:</td><td><div></div></td></tr><tr><td style="font-weight:bold;vertical-align:top;">remote_addr</td><td style="vertical-align:top;">:</td><td><div>127.0.0.1</div></td></tr><tr><td style="font-weight:bold;vertical-align:top;">remote_port</td><td style="vertical-align:top;">:</td><td><div>50381</div></td></tr><tr><td style="font-weight:bold;vertical-align:top;">request_method</td><td style="vertical-align:top;">:</td><td><div>GET</div></td></tr><tr><td style="font-weight:bold;vertical-align:top;">request_uri</td><td style="vertical-align:top;">:</td><td><div>/app1/default/heri_place/3</div></td></tr><tr><td style="font-weight:bold;vertical-align:top;">script_name</td><td style="vertical-align:top;">:</td><td><div></div></td></tr><tr><td style="font-weight:bold;vertical-align:top;">server_name</td><td style="vertical-align:top;">:</td><td><div>ITSMJTHING</div></td></tr><tr><td style="font-weight:bold;vertical-align:top;">server_port</td><td style="vertical-align:top;">:</td><td><div>8000</div></td></tr><tr><td style="font-weight:bold;vertical-align:top;">server_protocol</td><td style="vertical-align:top;">:</td><td><div>HTTP/1.1</div></td></tr><tr><td style="font-weight:bold;vertical-align:top;">server_software</td><td style="vertical-align:top;">:</td><td><div>Rocket 1.2.6</div></td></tr><tr><td style="font-weight:bold;vertical-align:top;">web2py_path</td><td style="vertical-align:top;">:</td><td><div>C:\\Users\\lenovo\\Downloads\\Compressed\\web2py</div></td></tr><tr><td style="font-weight:bold;vertical-align:top;">web2py_version</td><td style="vertical-align:top;">:</td><td><div>2.9.11-stable+timestamp.2014.09.15.23.35.11</div></td></tr><tr><td style="font-weight:bold;vertical-align:top;">wsgi.errors</td><td style="vertical-align:top;">:</td><td><div>&lt;open file &#x27;&lt;stderr&gt;&#x27;, mode &#x27;w&#x27; at 0x01CC60D0&gt;</div></td></tr><tr><td style="font-weight:bold;vertical-align:top;">wsgi.file_wrapper</td><td style="vertical-align:top;">:</td><td><div>&lt;class wsgiref.util.FileWrapper at 0x01FC2B58&gt;</div></td></tr><tr><td style="font-weight:bold;vertical-align:top;">wsgi.input</td><td style="vertical-align:top;">:</td><td><div>&lt;socket._fileobject object at 0x06FACBF0&gt;</div></td></tr><tr><td style="font-weight:bold;vertical-align:top;">wsgi.multiprocess</td><td style="vertical-align:top;">:</td><td><div>False</div></td></tr><tr><td style="font-weight:bold;vertical-align:top;">wsgi.multithread</td><td style="vertical-align:top;">:</td><td><div>True</div></td></tr><tr><td style="font-weight:bold;vertical-align:top;">wsgi.run_once</td><td style="vertical-align:top;">:</td><td><div>False</div></td></tr><tr><td style="font-weight:bold;vertical-align:top;">wsgi.url_scheme</td><td style="vertical-align:top;">:</td><td><div>http</div></td></tr><tr><td style="font-weight:bold;vertical-align:top;">wsgi.version</td><td style="vertical-align:top;">:</td><td><div><table><tr><td><div>1</div></td></tr><tr><td><div>0</div></td></tr></table></div></td></tr><tr><td style="font-weight:bold;vertical-align:top;">wsgi_errors</td><td style="vertical-align:top;">:</td><td><div>&lt;open file &#x27;&lt;stderr&gt;&#x27;, mode &#x27;w&#x27; at 0x01CC60D0&gt;</div></td></tr><tr><td style="font-weight:bold;vertical-align:top;">wsgi_file_wrapper</td><td style="vertical-align:top;">:</td><td><div>&lt;class wsgiref.util.FileWrapper at 0x01FC2B58&gt;</div></td></tr><tr><td style="font-weight:bold;vertical-align:top;">wsgi_input</td><td style="vertical-align:top;">:</td><td><div>&lt;socket._fileobject object at 0x06FACBF0&gt;</div></td></tr><tr><td style="font-weight:bold;vertical-align:top;">wsgi_multiprocess</td><td style="vertical-align:top;">:</td><td><div>False</div></td></tr><tr><td style="font-weight:bold;vertical-align:top;">wsgi_multithread</td><td style="vertical-align:top;">:</td><td><div>True</div></td></tr><tr><td style="font-weight:bold;vertical-align:top;">wsgi_run_once</td><td style="vertical-align:top;">:</td><td><div>False</div></td></tr><tr><td style="font-weight:bold;vertical-align:top;">wsgi_url_scheme</td><td style="vertical-align:top;">:</td><td><div>http</div></td></tr><tr><td style="font-weight:bold;vertical-align:top;">wsgi_version</td><td style="vertical-align:top;">:</td><td><div><table><tr><td><div>1</div></td></tr><tr><td><div>0</div></td></tr></table></div></td></tr></table></div></td></tr><tr><td style="font-weight:bold;vertical-align:top;">extension</td><td style="vertical-align:top;">:</td><td><div>html</div></td></tr><tr><td style="font-weight:bold;vertical-align:top;">folder</td><td style="vertical-align:top;">:</td><td><div>C:\\Users\\lenovo\\Downloads\\Compressed\\web2py\\applications\\app1\\</div></td></tr><tr><td style="font-weight:bold;vertical-align:top;">function</td><td style="vertical-align:top;">:</td><td><div>heri_place</div></td></tr><tr><td style="font-weight:bold;vertical-align:top;">global_settings</td><td style="vertical-align:top;">:</td><td><div><table><tr><td style="font-weight:bold;vertical-align:top;">app_folders</td><td style="vertical-align:top;">:</td><td><div>set([&#x27;C:\\\\Users\\\\lenovo\\\\Downloads\\\\Compressed\\\\web2py\\\\applications\\\\admin\\\\&#x27;, &#x27;C:\\\\Users\\\\lenovo\\\\Downloads\\\\Compressed\\\\web2py\\\\applications\\\\app1\\\\&#x27;, &#x27;C:\\\\Users\\\\lenovo\\\\Downloads\\\\Compressed\\\\web2py\\\\applications\\\\welcome\\\\&#x27;])</div></td></tr><tr><td style="font-weight:bold;vertical-align:top;">applications_parent</td><td style="vertical-align:top;">:</td><td><div>C:\\Users\\lenovo\\Downloads\\Compressed\\web2py</div></td></tr><tr><td style="font-weight:bold;vertical-align:top;">cmd_args</td><td style="vertical-align:top;">:</td><td><div><table></table></div></td></tr><tr><td style="font-weight:bold;vertical-align:top;">cmd_options</td><td style="vertical-align:top;">:</td><td><div>&lt;Values at 0x2dc62b0: {&#x27;verbose&#x27;: False, &#x27;ip&#x27;: &#x27;127.0.0.1&#x27;, &#x27;debuglevel&#x27;: 30, &#x27;with_scheduler&#x27;: False, &#x27;ips&#x27;: [&#x27;127.0.0.1&#x27;, &#x27;::1&#x27;], &#x27;shutdown_timeout&#x27;: 5, &#x27;taskbar&#x27;: False, &#x27;with_coverage&#x27;: False, &#x27;scheduler_groups&#x27;: None, &#x27;port&#x27;: 8000, &#x27;maxthreads&#x27;: None, &#x27;softcron&#x27;: False, &#x27;server_name&#x27;: &#x27;ITSMJTHING&#x27;, &#x27;bpython&#x27;: False, &#x27;nogui&#x27;: False, &#x27;pid_filename&#x27;: &#x27;httpserver.pid&#x27;, &#x27;extcron&#x27;: False, &#x27;runcron&#x27;: False, &#x27;run_system_tests&#x27;: False, &#x27;test&#x27;: None, &#x27;folder&#x27;: &#x27;C:\\\\Users\\\\lenovo\\\\Downloads\\\\Compressed\\\\web2py&#x27;, &#x27;config&#x27;: &#x27;&#x27;, &#x27;minthreads&#x27;: None, &#x27;shell&#x27;: None, &#x27;run&#x27;: &#x27;&#x27;, &#x27;log_filename&#x27;: &#x27;httpserver.log&#x27;, &#x27;profiler_dir&#x27;: None, &#x27;args&#x27;: [&#x27;&#x27;], &#x27;socket_timeout&#x27;: 5, &#x27;ssl_ca_certificate&#x27;: None, &#x27;scheduler&#x27;: None, &#x27;interfaces&#x27;: None, &#x27;ssl_private_key&#x27;: &#x27;&#x27;, &#x27;gae&#x27;: None, &#x27;password&#x27;: &#x27;&lt;ask&gt;&#x27;, &#x27;request_queue_size&#x27;: 5, &#x27;ssl_certificate&#x27;: &#x27;&#x27;, &#x27;cronjob&#x27;: False, &#x27;numthreads&#x27;: None, &#x27;quiet&#x27;: False, &#x27;import_models&#x27;: False, &#x27;timeout&#x27;: 10, &#x27;plain&#x27;: False, &#x27;nobanner&#x27;: False}&gt;</div></td></tr><tr><td style="font-weight:bold;vertical-align:top;">db_sessions</td><td style="vertical-align:top;">:</td><td><div>set([])</div></td></tr><tr><td style="font-weight:bold;vertical-align:top;">debugging</td><td style="vertical-align:top;">:</td><td><div>True</div></td></tr><tr><td style="font-weight:bold;vertical-align:top;">gluon_parent</td><td style="vertical-align:top;">:</td><td><div>C:\\Users\\lenovo\\Downloads\\Compressed\\web2py</div></td></tr><tr><td style="font-weight:bold;vertical-align:top;">is_jython</td><td style="vertical-align:top;">:</td><td><div>False</div></td></tr><tr><td style="font-weight:bold;vertical-align:top;">is_pypy</td><td style="vertical-align:top;">:</td><td><div>False</div></td></tr><tr><td style="font-weight:bold;vertical-align:top;">is_source</td><td style="vertical-align:top;">:</td><td><div>False</div></td></tr><tr><td style="font-weight:bold;vertical-align:top;">local_hosts</td><td style="vertical-align:top;">:</td><td><div><table><tr><td><div>::1</div></td></tr><tr><td><div>::ffff:127.0.0.1</div></td></tr><tr><td><div>127.0.0.1</div></td></tr><tr><td><div>ITSMJTHING</div></td></tr></table></div></td></tr><tr><td style="font-weight:bold;vertical-align:top;">web2py_version</td><td style="vertical-align:top;">:</td><td><div>2.9.11-stable+timestamp.2014.09.15.23.35.11</div></td></tr></table></div></td></tr><tr><td style="font-weight:bold;vertical-align:top;">is_https</td><td style="vertical-align:top;">:</td><td><div>False</div></td></tr><tr><td style="font-weight:bold;vertical-align:top;">is_local</td><td style="vertical-align:top;">:</td><td><div>True</div></td></tr><tr><td style="font-weight:bold;vertical-align:top;">is_restful</td><td style="vertical-align:top;">:</td><td><div>False</div></td></tr><tr><td style="font-weight:bold;vertical-align:top;">is_sheduler</td><td style="vertical-align:top;">:</td><td><div>None</div></td></tr><tr><td style="font-weight:bold;vertical-align:top;">is_shell</td><td style="vertical-align:top;">:</td><td><div>None</div></td></tr><tr><td style="font-weight:bold;vertical-align:top;">now</td><td style="vertical-align:top;">:</td><td><div>datetime.datetime(2014, 11, 1, 20, 18, 2, 479000)</div></td></tr><tr><td style="font-weight:bold;vertical-align:top;">raw_args</td><td style="vertical-align:top;">:</td><td><div>3</div></td></tr><tr><td style="font-weight:bold;vertical-align:top;">raw_extension</td><td style="vertical-align:top;">:</td><td><div>None</div></td></tr><tr><td style="font-weight:bold;vertical-align:top;">url</td><td style="vertical-align:top;">:</td><td><div>/app1/default/heri_place/3</div></td></tr><tr><td style="font-weight:bold;vertical-align:top;">utcnow</td><td style="vertical-align:top;">:</td><td><div>datetime.datetime(2014, 11, 1, 14, 48, 2, 479000)</div></td></tr><tr><td style="font-weight:bold;vertical-align:top;">uuid</td><td style="vertical-align:top;">:</td><td><div>app1/127.0.0.1.2014-11-01.20-18-02.cc0449d5-a1d5-4417-bb57-992ef5dd3048</div></td></tr><tr><td style="font-weight:bold;vertical-align:top;">wsgi</td><td style="vertical-align:top;">:</td><td><div>&lt;gluon.main.LazyWSGI object at 0x076958D0&gt;</div></td></tr></table></div>'
tRp58
sS'frames'
p59
(lp60
(dp61
S'file'
p62
S'C:\\Users\\lenovo\\Downloads\\Compressed\\web2py\\gluon\\restricted.py'
p63
sS'dump'
p64
(dp65
sS'lnum'
p66
I224
sS'lines'
p67
(dp68
sS'call'
p69
S"(code='# -*- coding: utf-8 -*-\\n# this file is released ...es)\\n\\nresponse._vars=response._caller(heri_place)\\n', environment={'A': <class 'gluon.html.A'>, 'ANY_OF': <class 'gluon.validators.ANY_OF'>, 'ASSIGNJS': <function ASSIGNJS>, 'Auth': <class 'gluon.tools.Auth'>, 'B': <class 'gluon.html.B'>, 'BEAUTIFY': <class 'gluon.html.BEAUTIFY'>, 'BODY': <class 'gluon.html.BODY'>, 'BR': <class 'gluon.html.BR'>, 'BUTTON': <class 'gluon.html.BUTTON'>, 'CAT': <class 'gluon.html.CAT'>, ...}, layer=r'C:\\Users\\lenovo\\Downloads\\Compressed\\web2py\\applications\\app1\\controllers/default.py')"
p70
sS'func'
p71
S'restricted'
p72
sa(dp73
g62
S'C:\\Users\\lenovo\\Downloads\\Compressed\\web2py\\applications\\app1\\controllers\\default.py'
p74
sg64
(dp75
sg66
I333
sg67
(dp76
I322
S'def api():'
p77
sI323
S'    """'
p78
sI324
S'    this is example of API with access control'
p79
sI325
S'    WEB2PY provides Hypermedia API (Collection+JSON) Experimental'
p80
sI326
S'    """'
p81
sI327
S'    from gluon.contrib.hypermedia import Collection'
p82
sI328
S'    rules = {'
p83
sI329
S"        '<tablename>': {'GET':{},'POST':{},'PUT':{},'DELETE':{}},"
p84
sI330
S'        }'
p85
sI331
S'    return Collection(db).process(request,response,rules)'
p86
ssg69
S'()'
p87
sg71
S'<module>'
p88
sa(dp89
g62
S'C:\\Users\\lenovo\\Downloads\\Compressed\\web2py\\gluon\\globals.py'
p90
sg64
(dp91
sg66
I392
sg67
(dp92
sg69
S'(f=<function heri_place>)'
p93
sg71
S'<lambda>'
p94
sa(dp95
g62
S'C:\\Users\\lenovo\\Downloads\\Compressed\\web2py\\applications\\app1\\controllers\\default.py'
p96
sg64
(dp97
S'db.heritage_area.Name_HA'
p98
S'<gluon.dal.Field object>'
p99
sS'global request'
p100
S"<Storage {'_vars': None, 'function': 'heri_place...oads\\\\Compressed\\\\web2py\\\\applications\\\\app1\\\\'}>"
p101
sS').select'
p102
S'undefined'
p103
sS'request.args'
p104
S"['3']"
p105
sS'global db'
p106
S'<DAL uri="sqlite://storage.sqlite">'
p107
sS'post'
p108
g103
sS'db.heritage_area'
p109
S'<Table heritage_area (id,Name_HA,Description_HA)>'
p110
ssg66
I32
sg67
(dp111
I32
S'    post = db.heritage_area(db.heritage_area.Name_HA==request.args(0)).select()'
p112
sI33
S''
sI34
S'    return locals()'
p113
sI35
S''
sI36
S''
sI27
S'    return locals()'
p114
sI28
S''
sI29
S'def heri_place():'
p115
sI30
S"    response.files.append(URL('static', 'css/background_heritage.css'))"
p116
sI31
S"    response.files.append(URL('static', 'css/box_heritage.css'))"
p117
ssg69
S'()'
p118
sg71
S'heri_place'
p119
sasS'pyver'
p120
S'Python 2.7.6: C:\\Users\\lenovo\\Downloads\\Compressed\\web2py\\web2py.exe (prefix: )'
p121
sS'session'
p122
g57
(S's\xbc\x01\x00\x00<div><table><tr><td style="font-weight:bold;vertical-align:top;">flash</td><td style="vertical-align:top;">:</td><td><div></div></td></tr><tr><td style="font-weight:bold;vertical-align:top;">last_orderby</td><td style="vertical-align:top;">:</td><td><div>None</div></td></tr><tr><td style="font-weight:bold;vertical-align:top;">last_query</td><td style="vertical-align:top;">:</td><td><div>db.heritage_area.id&gt;0</div></td></tr></table></div>'
tRp123
sS'etype'
p124
S"<type 'exceptions.AttributeError'>"
p125
sS'date'
p126
S'Sat Nov 01 20:18:02 2014'
p127
sS'response'
p128
g57
(S's*\x1f\x00\x00<div><table><tr><td style="font-weight:bold;vertical-align:top;">body</td><td style="vertical-align:top;">:</td><td><div>&lt;cStringIO.StringO object at 0x07187A40&gt;</div></td></tr><tr><td style="font-weight:bold;vertical-align:top;">cookies</td><td style="vertical-align:top;">:</td><td><div><table><tr><td style="font-weight:bold;vertical-align:top;">session_id_app1</td><td style="vertical-align:top;">:</td><td><div>127.0.0.1-b458c4c1-aa2c-4c12-bfed-707ce65e5728<table><tr><td style="font-weight:bold;vertical-align:top;">comment</td><td style="vertical-align:top;">:</td><td><div></div></td></tr><tr><td style="font-weight:bold;vertical-align:top;">domain</td><td style="vertical-align:top;">:</td><td><div></div></td></tr><tr><td style="font-weight:bold;vertical-align:top;">expires</td><td style="vertical-align:top;">:</td><td><div></div></td></tr><tr><td style="font-weight:bold;vertical-align:top;">httponly</td><td style="vertical-align:top;">:</td><td><div></div></td></tr><tr><td style="font-weight:bold;vertical-align:top;">max-age</td><td style="vertical-align:top;">:</td><td><div></div></td></tr><tr><td style="font-weight:bold;vertical-align:top;">path</td><td style="vertical-align:top;">:</td><td><div>/</div></td></tr><tr><td style="font-weight:bold;vertical-align:top;">secure</td><td style="vertical-align:top;">:</td><td><div></div></td></tr><tr><td style="font-weight:bold;vertical-align:top;">version</td><td style="vertical-align:top;">:</td><td><div></div></td></tr></table></div></td></tr></table></div></td></tr><tr><td style="font-weight:bold;vertical-align:top;">delimiters</td><td style="vertical-align:top;">:</td><td><div><table><tr><td><div>{{</div></td></tr><tr><td><div>}}</div></td></tr></table></div></td></tr><tr><td style="font-weight:bold;vertical-align:top;">files</td><td style="vertical-align:top;">:</td><td><div><table><tr><td><div>/app1/static/css/background_heritage.css</div></td></tr><tr><td><div>/app1/static/css/box_heritage.css</div></td></tr></table></div></td></tr><tr><td style="font-weight:bold;vertical-align:top;">flash</td><td style="vertical-align:top;">:</td><td><div></div></td></tr><tr><td style="font-weight:bold;vertical-align:top;">form_label_separator</td><td style="vertical-align:top;">:</td><td><div>: </div></td></tr><tr><td style="font-weight:bold;vertical-align:top;">formstyle</td><td style="vertical-align:top;">:</td><td><div>table3cols</div></td></tr><tr><td style="font-weight:bold;vertical-align:top;">generic_patterns</td><td style="vertical-align:top;">:</td><td><div><table><tr><td><div>*</div></td></tr></table></div></td></tr><tr><td style="font-weight:bold;vertical-align:top;">google_analytics_id</td><td style="vertical-align:top;">:</td><td><div>None</div></td></tr><tr><td style="font-weight:bold;vertical-align:top;">headers</td><td style="vertical-align:top;">:</td><td><div><table><tr><td style="font-weight:bold;vertical-align:top;">X-Powered-By</td><td style="vertical-align:top;">:</td><td><div>web2py</div></td></tr></table></div></td></tr><tr><td style="font-weight:bold;vertical-align:top;">logo</td><td style="vertical-align:top;">:</td><td><div><a class="brand" href="/app1/default/home"><b>Incredible Varanasi</b><sup> MADS</sup></a></div></td></tr><tr><td style="font-weight:bold;vertical-align:top;">menu</td><td style="vertical-align:top;">:</td><td><div><table><tr><td><div><table><tr><td><div>Home</div></td></tr><tr><td><div>False</div></td></tr><tr><td><div>/app1/default/home</div></td></tr><tr><td><div><table></table></div></td></tr></table></div></td></tr><tr><td><div><table><tr><td><div><span class="highlighted">About Us</span></div></td></tr><tr><td><div>False</div></td></tr><tr><td><div>http://web2py.com</div></td></tr><tr><td><div><table><tr><td><div><table><tr><td><div>Contact</div></td></tr><tr><td><div>False</div></td></tr><tr><td><div>/app1/default/create</div></td></tr></table></div></td></tr></table></div></td></tr></table></div></td></tr></table></div></td></tr><tr><td style="font-weight:bold;vertical-align:top;">meta</td><td style="vertical-align:top;">:</td><td><div><table><tr><td style="font-weight:bold;vertical-align:top;">author</td><td style="vertical-align:top;">:</td><td><div>Mehul Jain &lt;mehul.jain.cse12@iitbhu.ac.in&gt;</div></td></tr><tr><td style="font-weight:bold;vertical-align:top;">generator</td><td style="vertical-align:top;">:</td><td><div>Web2py Web Framework</div></td></tr><tr><td style="font-weight:bold;vertical-align:top;">keywords</td><td style="vertical-align:top;">:</td><td><div>home</div></td></tr></table></div></td></tr><tr><td style="font-weight:bold;vertical-align:top;">models_to_run</td><td style="vertical-align:top;">:</td><td><div><table><tr><td><div>^\\w+\\.py$</div></td></tr><tr><td><div>^default/\\w+\\.py$</div></td></tr><tr><td><div>^default/heri_place/\\w+\\.py$</div></td></tr></table></div></td></tr><tr><td style="font-weight:bold;vertical-align:top;">postprocessing</td><td style="vertical-align:top;">:</td><td><div><table></table></div></td></tr><tr><td style="font-weight:bold;vertical-align:top;">session_client</td><td style="vertical-align:top;">:</td><td><div>127.0.0.1</div></td></tr><tr><td style="font-weight:bold;vertical-align:top;">session_cookie_compression_level</td><td style="vertical-align:top;">:</td><td><div>None</div></td></tr><tr><td style="font-weight:bold;vertical-align:top;">session_cookie_expires</td><td style="vertical-align:top;">:</td><td><div>None</div></td></tr><tr><td style="font-weight:bold;vertical-align:top;">session_cookie_key</td><td style="vertical-align:top;">:</td><td><div>None</div></td></tr><tr><td style="font-weight:bold;vertical-align:top;">session_data_name</td><td style="vertical-align:top;">:</td><td><div>session_data_app1</div></td></tr><tr><td style="font-weight:bold;vertical-align:top;">session_file</td><td style="vertical-align:top;">:</td><td><div>&lt;open file &#x27;C:\\\\Users\\\\lenovo\\\\Downloads\\\\Compressed\\\\web2py\\\\applications\\\\app1\\\\sessions\\\\18e\\\\0ee\\\\127.0.0.1-b458c4c1-aa2c-4c12-bfed-707ce65e5728&#x27;, mode &#x27;rb+&#x27; at 0x07682440&gt;</div></td></tr><tr><td style="font-weight:bold;vertical-align:top;">session_filename</td><td style="vertical-align:top;">:</td><td><div>C:\\Users\\lenovo\\Downloads\\Compressed\\web2py\\applications\\app1\\sessions\\127.0.0.1-b458c4c1-aa2c-4c12-bfed-707ce65e5728</div></td></tr><tr><td style="font-weight:bold;vertical-align:top;">session_hash</td><td style="vertical-align:top;">:</td><td><div>68d132bc89b35b31e8e00ab5900a0e0a</div></td></tr><tr><td style="font-weight:bold;vertical-align:top;">session_id</td><td style="vertical-align:top;">:</td><td><div>127.0.0.1-b458c4c1-aa2c-4c12-bfed-707ce65e5728</div></td></tr><tr><td style="font-weight:bold;vertical-align:top;">session_id_name</td><td style="vertical-align:top;">:</td><td><div>session_id_app1</div></td></tr><tr><td style="font-weight:bold;vertical-align:top;">session_locked</td><td style="vertical-align:top;">:</td><td><div>True</div></td></tr><tr><td style="font-weight:bold;vertical-align:top;">session_masterapp</td><td style="vertical-align:top;">:</td><td><div>app1</div></td></tr><tr><td style="font-weight:bold;vertical-align:top;">session_new</td><td style="vertical-align:top;">:</td><td><div>False</div></td></tr><tr><td style="font-weight:bold;vertical-align:top;">session_storage_type</td><td style="vertical-align:top;">:</td><td><div>file</div></td></tr><tr><td style="font-weight:bold;vertical-align:top;">status</td><td style="vertical-align:top;">:</td><td><div>200</div></td></tr><tr><td style="font-weight:bold;vertical-align:top;">subtitle</td><td style="vertical-align:top;">:</td><td><div></div></td></tr><tr><td style="font-weight:bold;vertical-align:top;">title</td><td style="vertical-align:top;">:</td><td><div>App1</div></td></tr><tr><td style="font-weight:bold;vertical-align:top;">view</td><td style="vertical-align:top;">:</td><td><div>default/heri_place.html</div></td></tr></table></div>'
tRp129
sS'locals'
p130
(dp131
ssS'traceback'
p132
S'Traceback (most recent call last):\n  File "gluon/restricted.py", line 224, in restricted\n  File "C:\\Users\\lenovo\\Downloads\\Compressed\\web2py\\applications\\app1\\controllers/default.py", line 333, in <module>\n  File "gluon/globals.py", line 392, in <lambda>\n  File "C:\\Users\\lenovo\\Downloads\\Compressed\\web2py\\applications\\app1\\controllers/default.py", line 32, in heri_place\n    post = db.heritage_area(db.heritage_area.Name_HA==request.args(0)).select()\nAttributeError: \'NoneType\' object has no attribute \'select\'\n'
p133
s.