(dp1
S'output'
p2
S'Unable to open included view file: C:\\Users\\lenovo\\Downloads\\Compressed\\web2py\\applications\\app1\\views\\check.html'
p3
sS'layer'
p4
S'ParserContainer'
p5
sS'code'
p6
S"{{extend 'check.html'}}\r\n<h1>This is the default/home.html template</h1>\r\n{{=BEAUTIFY(response._vars)}}\r\n"
p7
sS'snapshot'
p8
(dp9
S'exception'
p10
(dp11
S'__getslice__'
p12
S"<method-wrapper '__getslice__' of exceptions.IOError object>"
p13
sS'__str__'
p14
S"<method-wrapper '__str__' of exceptions.IOError object>"
p15
sS'__reduce__'
p16
S'<built-in method __reduce__ of exceptions.IOError object>'
p17
sS'__dict__'
p18
S'{}'
p19
sS'__sizeof__'
p20
S'<built-in method __sizeof__ of exceptions.IOError object>'
p21
sS'__init__'
p22
S"<method-wrapper '__init__' of exceptions.IOError object>"
p23
sS'__setattr__'
p24
S"<method-wrapper '__setattr__' of exceptions.IOError object>"
p25
sS'__reduce_ex__'
p26
S'<built-in method __reduce_ex__ of exceptions.IOError object>'
p27
sS'__new__'
p28
S'<built-in method __new__ of type object>'
p29
sS'errno'
p30
S'2'
sS'__format__'
p31
S'<built-in method __format__ of exceptions.IOError object>'
p32
sS'__class__'
p33
S"<type 'exceptions.IOError'>"
p34
sS'filename'
p35
S"r'C:\\Users\\lenovo\\Downloads\\Compressed\\web2py\\applications\\app1\\views\\check.html'"
p36
sS'__doc__'
p37
S"'I/O operation failed.'"
p38
sS'__getitem__'
p39
S"<method-wrapper '__getitem__' of exceptions.IOError object>"
p40
sS'__setstate__'
p41
S'<built-in method __setstate__ of exceptions.IOError object>'
p42
sS'__getattribute__'
p43
S"<method-wrapper '__getattribute__' of exceptions.IOError object>"
p44
sS'args'
p45
S"(2, 'No such file or directory')"
p46
sS'__subclasshook__'
p47
S'<built-in method __subclasshook__ of type object>'
p48
sS'__unicode__'
p49
S'<built-in method __unicode__ of exceptions.IOError object>'
p50
sS'strerror'
p51
S"'No such file or directory'"
p52
sS'__delattr__'
p53
S"<method-wrapper '__delattr__' of exceptions.IOError object>"
p54
sS'__repr__'
p55
S"<method-wrapper '__repr__' of exceptions.IOError object>"
p56
sS'__hash__'
p57
S"<method-wrapper '__hash__' of exceptions.IOError object>"
p58
ssS'evalue'
p59
S"[Errno 2] No such file or directory: 'C:\\\\Users\\\\lenovo\\\\Downloads\\\\Compressed\\\\web2py\\\\applications\\\\app1\\\\views\\\\check.html'"
p60
sS'frames'
p61
(lp62
(dp63
S'file'
p64
S'C:\\Users\\lenovo\\Downloads\\Compressed\\web2py\\gluon\\template.py'
p65
sS'dump'
p66
(dp67
sS'lnum'
p68
I450
sS'lines'
p69
(dp70
sS'call'
p71
S"(self=<gluon.template.TemplateParser object>, filename='check.html')"
p72
sS'func'
p73
S'_get_file_text'
p74
sasS'pyver'
p75
S'Python 2.7.6: C:\\Users\\lenovo\\Downloads\\Compressed\\web2py\\web2py.exe (prefix: )'
p76
sS'etype'
p77
S"<type 'exceptions.IOError'>"
p78
sS'date'
p79
S'Fri Oct 31 15:23:41 2014'
p80
sS'locals'
p81
(dp82
S'self'
p83
S'<gluon.template.TemplateParser object>'
p84
sg35
S"'check.html'"
p85
sS'context'
p86
S"{'A': <class 'gluon.html.A'>, 'ANY_OF': <class 'gluon.validators.ANY_OF'>, 'ASSIGNJS': <function ASSIGNJS>, 'Auth': <class 'gluon.tools.Auth'>, 'B': <class 'gluon.html.B'>, 'BEAUTIFY': <class 'gluon.html.BEAUTIFY'>, 'BODY': <class 'gluon.html.BODY'>, 'BR': <class 'gluon.html.BR'>, 'BUTTON': <class 'gluon.html.BUTTON'>, 'CAT': <class 'gluon.html.CAT'>, ...}"
p87
sS'filepath'
p88
S"r'C:\\Users\\lenovo\\Downloads\\Compressed\\web2py\\applications\\app1\\views\\check.html'"
p89
sssS'traceback'
p90
S'Traceback (most recent call last):\n  File "gluon/template.py", line 450, in _get_file_text\nIOError: [Errno 2] No such file or directory: \'C:\\\\Users\\\\lenovo\\\\Downloads\\\\Compressed\\\\web2py\\\\applications\\\\app1\\\\views\\\\check.html\'\n'
p91
s.