(dp1
S'output'
p2
S"<type 'exceptions.NameError'> name 'now' is not defined"
p3
sS'layer'
p4
S'K:\\web2py_win\\web2py\\applications\\app1\\models\\db1.py'
p5
sS'code'
p6
S"# -*- coding: utf-8 -*-\ndb.define_table('abb')\ndb.define_table('web2py_session',\n                 Field('locked', 'boolean', default=False),\n                 Field('client_ip'),\n                 Field('created_datetime', 'datetime', default=now),\n                 Field('modified_datetime', 'datetime'),\n                 Field('unique_key'),\n                 Field('session_data', 'text'))\ndb.define_table('local_handlooms',\n               Field('ID_LH','string',requires=IS_NOT_EMPTY()),\n               Field('Name_LH','string',requires=[IS_NOT_EMPTY(error_message=auth.messages.is_empty),IS_ALPHANUMERIC(error_message='Not Alphanumeric')]),\n               Field('Description_LH','string'),\n               Field('Street_LH','string'),\n               Field('City_LH','string'),\n               Field('State_LH','string'),\n               Field('Zip_LH','integer'),\n               Field('Rating_LH','integer'),\n               Field('Opening_LH','time'),\n               Field('Closing_LH','time'),\n               primarykey=['ID_LH'],\n)\ndb.define_table('local_handlooms_2',\n               Field('ID_LH_2','string',requires=IS_NOT_EMPTY()),\n               Field('Phone_LH','string'),\n               primarkey=['ID_LH_2','Phone_LH'],\n)\ndb.define_table('recreation_hub',\n               Field('ID_RH','string',requires=IS_NOT_EMPTY()),\n               Field('Name_RH','string',requires=[IS_NOT_EMPTY(error_message=auth.messages.is_empty),IS_ALPHANUMERIC(error_message='Not Alphanumeric')]),\n               Field('Description_RH','string'),\n               Field('Street_RH','string'),\n               Field('City_RH','string'),\n               Field('State_RH','string'),\n               Field('Zip_RH','integer'),\n               Field('Rating_RH','integer'),\n               Field('Opening_RH','time'),\n               Field('Closing_RH','time'),\n               Field('Ticket_Price_RH','integer'),\n               primarykey=['ID_RH'],\n)\ndb.define_table('bank',\n               Field('ID_BK','string',requires=IS_NOT_EMPTY()),\n               Field('Name_BK','string',requires=[IS_NOT_EMPTY(error_message=auth.messages.is_empty),IS_ALPHANUMERIC(error_message='Not Alphanumeric')]),\n               Field('Street_BK','string'),\n               Field('City_BK','string'),\n               Field('State_BK','string'),\n               Field('Zip_BK','integer'),\n               Field('Rating_BK','integer'),\n               Field('Opening_BK','time'),\n               Field('Closing_BK','time'),\n               primarykey=['ID_BK'],\n)\ndb.define_table('bank_2',\n               Field('ID_BK_2','string',requires=IS_NOT_EMPTY()),\n               Field('Phone_BK','string'),\n               primarkey=['ID_BK_2','Phone_BK'],\n)\ndb.define_table('spiritual_hub',\n               Field('ID_SH','string',requires=IS_NOT_EMPTY()),\n               Field('Name_SH','string',requires=[IS_NOT_EMPTY(error_message=auth.messages.is_empty),IS_ALPHANUMERIC(error_message='Not Alphanumeric')]),\n               Field('Description_SH','string'),\n               Field('Street_SH','string'),\n               Field('City_SH','string'),\n               Field('State_SH','string'),\n               Field('Zip_SH','integer'),\n               Field('Rating_SH','integer'),\n               Field('Opening_SH','time'),\n               Field('Closing_SH','time'),\n               primarykey=['ID_SH'],\n)\ndb.define_table('hotels',\n               Field('ID_HT','string',requires=IS_NOT_EMPTY()),\n               Field('Name_HT','string',requires=[IS_NOT_EMPTY(error_message=auth.messages.is_empty),IS_ALPHANUMERIC(error_message='Not Alphanumeric')]),\n               Field('Description_HT','string'),\n               Field('Street_HT','string'),\n               Field('City_HT','string'),\n               Field('State_HT','string'),\n               Field('Zip_HT','integer'),\n               Field('Rating_HT','integer'),\n               Field('Website_HT','string'),\n               primarykey=['ID_HT'],\n)\ndb.define_table('hotels_2',\n               Field('ID_HT_2','string',requires=IS_NOT_EMPTY()),\n               Field('Phone_HT','string'),\n               primarkey=['ID_HT_2','Phone_HT'],\n)\ndb.define_table('heritage_areas',\n               Field('ID_HA','string',requires=IS_NOT_EMPTY()),\n               Field('Name_HA','string',requires=[IS_NOT_EMPTY(error_message=auth.messages.is_empty),IS_ALPHANUMERIC(error_message='Not Alphanumeric')]),\n               Field('Description_HA','string'),\n               Field('Street_HA','string'),\n               Field('City_HA','string'),\n               Field('State_HA','string'),\n               Field('Zip_HA','integer'),\n               Field('Rating_HA','integer'),\n               Field('Ticket_Price_HA','integer'),\n               Field('Opening_HA','time'),\n               Field('Closing_HA','time'),\n               primarykey=['ID_HA'],\n)\ndb.define_table('entertainment_hub',\n               Field('ID_EH','string',requires=IS_NOT_EMPTY()),\n               Field('Name_EH','string',requires=[IS_NOT_EMPTY(error_message=auth.messages.is_empty),IS_ALPHANUMERIC(error_message='Not Alphanumeric')]),\n               Field('Description_EH','string'),\n               Field('Street_EH','string'),\n               Field('City_EH','string'),\n               Field('State_EH','string'),\n               Field('Zip_EH','integer'),\n               Field('Rating_EH','integer'),\n               Field('Ticket_Price_EH','string'),\n               Field('Opening_EH','time'),\n               Field('Closing_EH','time'),\n               primarykey=['ID_EH'],\n)\ndb.define_table('travel_agency',\n               Field('ID_TA','string',requires=IS_NOT_EMPTY()),\n               Field('Name_TA','string',requires=[IS_NOT_EMPTY(error_message=auth.messages.is_empty),IS_ALPHANUMERIC(error_message='Not Alphanumeric')]),\n               Field('Description_TA','string'),\n               Field('Street_TA','string'),\n               Field('City_TA','string'),\n               Field('State_TA','string'),\n               Field('Zip_TA','integer'),\n               Field('Rating_TA','integer'),\n               Field('Website_TA','string'),\n               primarykey=['ID_TA'],\n)\ndb.define_table('Travel_Agency_2',\n               Field('ID_TA_2','string',requires=IS_NOT_EMPTY()),\n               Field('Phone_TA','string'),\n               Field('Tour_Package_TA','string'),\n               primarkey=['ID_TA_2','Phone_TA','Tour_Package_TA'],\n)\ndb.define_table('restaurant',\n               Field('ID_RS','string',requires=IS_NOT_EMPTY()),\n               Field('Name_RS','string',requires=[IS_NOT_EMPTY(error_message=auth.messages.is_empty),IS_ALPHANUMERIC(error_message='Not Alphanumeric')]),\n               Field('Description_RS','string'),\n               Field('Street_RS','string'),\n               Field('City_RS','string'),\n               Field('State_RS','string'),\n               Field('Zip_RS','integer'),\n               Field('Opening_RS','time'),\n               Field('Closing_RS','time'),\n               Field('Rating_RS','integer'),\n               Field('Website_RS','string'),\n               primarykey=['ID_RS'],\n)\ndb.define_table('restaurant_2',\n               Field('ID_RS_2','string',requires=IS_NOT_EMPTY()),\n               Field('Phone_RS','string'),\n               primarkey=['ID_RS_2','Phone_RS'],\n)\ndb.define_table('taxi_service',\n               Field('ID_TS','string',requires=IS_NOT_EMPTY()),\n               Field('Name_TS','string',requires=[IS_NOT_EMPTY(error_message=auth.messages.is_empty),IS_ALPHANUMERIC(error_message='Not Alphanumeric')]),\n               Field('Street_TS','string'),\n               Field('City_TS','string'),\n               Field('State_TS','string'),\n               Field('Zip_TS','integer'),\n               Field('Rating_TS','integer'),\n               Field('Website_TS','string'),\n               primarykey=['ID_TS'],\n)\ndb.define_table('taxi_service_2',\n               Field('ID_TS_2','string',requires=IS_NOT_EMPTY()),\n               Field('Phone_TS','string'),\n               Field('Car_Price_TS','string'),\n               Field('Car_Types_TS','string'),\n               primarkey=['ID_TS_2','Phone_TS','Car_Types_TS'],\n)\ndb.define_table('fuel_agency',\n               Field('ID_FA','string',requires=IS_NOT_EMPTY()),\n               Field('Name_FA','string',requires=[IS_NOT_EMPTY(error_message=auth.messages.is_empty),IS_ALPHANUMERIC(error_message='Not Alphanumeric')]),\n               Field('Street_FA','string'),\n               Field('City_FA','string'),\n               Field('State_FA','string'),\n               Field('Zip_FA','integer'),\n               Field('Rating_FA','integer'),\n               Field('ID_FC_R','string',requires=IS_NOT_EMPTY()),\n               primarykey=['ID_FA'],\n)\ndb.define_table('fuel_agency_2',\n               Field('ID_FA_2','string',requires=IS_NOT_EMPTY()),\n               Field('Phone_FA','string'),\n               primarkey=['ID_FA_2','Phone_FA'],\n)\ndb.define_table('fuel_company',\n               Field('ID_FC','string',requires=IS_NOT_EMPTY()),\n               Field('Name_FC','string',requires=[IS_NOT_EMPTY(error_message=auth.messages.is_empty),IS_ALPHANUMERIC(error_message='Not Alphanumeric')]),\n               Field('Dieselperlitre_FC','float'),\n               Field('Petrolperlitre_FC','float'),\n               primarkey=['ID_FC','Phone_FA'],\n)\ndb.define_table('places',\n                Field('Place_ID'),\n                Field('place_name'),\n                Field('rating','integer'),\n                Field('place_type','string')\n               )\ndb.define_table('place_distance',\n                Field('place1'),\n                Field('place2'),\n                Field('distance')\n)\n\ndb.define_table('visit_places',\n                Field('RU_ID_Place','string',requires=IS_NOT_EMPTY()),\n                Field('Place_ID','string',requires=IS_NOT_EMPTY()),\n                Field('User_Comment_Place','text'),\n                Field('User_Rating_Place','integer',default=5,requires=IS_INT_IN_RANGE(0,6)),\n                auth.signature\n)\n\n\ndb.define_table('visit_reply',\n                Field('post_id','integer'),\n                Field('reply','text',requires=IS_NOT_EMPTY()),\n                auth.signature\n               )\n"
p7
sS'snapshot'
p8
(dp9
S'exception'
p10
(dp11
S'__hash__'
p12
S"<method-wrapper '__hash__' of exceptions.NameError object>"
p13
sS'__setattr__'
p14
S"<method-wrapper '__setattr__' of exceptions.NameError object>"
p15
sS'__reduce_ex__'
p16
S'<built-in method __reduce_ex__ of exceptions.NameError object>'
p17
sS'__getslice__'
p18
S"<method-wrapper '__getslice__' of exceptions.NameError object>"
p19
sS'__getitem__'
p20
S"<method-wrapper '__getitem__' of exceptions.NameError object>"
p21
sS'__setstate__'
p22
S'<built-in method __setstate__ of exceptions.NameError object>'
p23
sS'__reduce__'
p24
S'<built-in method __reduce__ of exceptions.NameError object>'
p25
sS'__str__'
p26
S"<method-wrapper '__str__' of exceptions.NameError object>"
p27
sS'__format__'
p28
S'<built-in method __format__ of exceptions.NameError object>'
p29
sS'__getattribute__'
p30
S"<method-wrapper '__getattribute__' of exceptions.NameError object>"
p31
sS'__class__'
p32
S"<type 'exceptions.NameError'>"
p33
sS'__unicode__'
p34
S'<built-in method __unicode__ of exceptions.NameError object>'
p35
sS'__delattr__'
p36
S"<method-wrapper '__delattr__' of exceptions.NameError object>"
p37
sS'__subclasshook__'
p38
S'<built-in method __subclasshook__ of type object>'
p39
sS'__repr__'
p40
S"<method-wrapper '__repr__' of exceptions.NameError object>"
p41
sS'args'
p42
S'("name \'now\' is not defined",)'
p43
sS'__dict__'
p44
S'{}'
p45
sS'__sizeof__'
p46
S'<built-in method __sizeof__ of exceptions.NameError object>'
p47
sS'__doc__'
p48
S"'Name not found globally.'"
p49
sS'__init__'
p50
S"<method-wrapper '__init__' of exceptions.NameError object>"
p51
sS'__new__'
p52
S'<built-in method __new__ of type object>'
p53
ssS'evalue'
p54
S"name 'now' is not defined"
p55
sS'request'
p56
cgluon.html
XML_unpickle
p57
(S's\x00V\x00\x00<div><table><tr><td style="font-weight:bold;vertical-align:top;">ajax</td><td style="vertical-align:top;">:</td><td><div>False</div></td></tr><tr><td style="font-weight:bold;vertical-align:top;">application</td><td style="vertical-align:top;">:</td><td><div>app1</div></td></tr><tr><td style="font-weight:bold;vertical-align:top;">args</td><td style="vertical-align:top;">:</td><td><div><table></table></div></td></tr><tr><td style="font-weight:bold;vertical-align:top;">cid</td><td style="vertical-align:top;">:</td><td><div>None</div></td></tr><tr><td style="font-weight:bold;vertical-align:top;">client</td><td style="vertical-align:top;">:</td><td><div>127.0.0.1</div></td></tr><tr><td style="font-weight:bold;vertical-align:top;">controller</td><td style="vertical-align:top;">:</td><td><div>default</div></td></tr><tr><td style="font-weight:bold;vertical-align:top;">cookies</td><td style="vertical-align:top;">:</td><td><div><table><tr><td style="font-weight:bold;vertical-align:top;">session_id_admin</td><td style="vertical-align:top;">:</td><td><div>127.0.0.1-4625ce5a-de3a-4bab-8ab1-05dee811242c<table><tr><td style="font-weight:bold;vertical-align:top;">comment</td><td style="vertical-align:top;">:</td><td><div></div></td></tr><tr><td style="font-weight:bold;vertical-align:top;">domain</td><td style="vertical-align:top;">:</td><td><div></div></td></tr><tr><td style="font-weight:bold;vertical-align:top;">expires</td><td style="vertical-align:top;">:</td><td><div></div></td></tr><tr><td style="font-weight:bold;vertical-align:top;">httponly</td><td style="vertical-align:top;">:</td><td><div></div></td></tr><tr><td style="font-weight:bold;vertical-align:top;">max-age</td><td style="vertical-align:top;">:</td><td><div></div></td></tr><tr><td style="font-weight:bold;vertical-align:top;">path</td><td style="vertical-align:top;">:</td><td><div></div></td></tr><tr><td style="font-weight:bold;vertical-align:top;">secure</td><td style="vertical-align:top;">:</td><td><div></div></td></tr><tr><td style="font-weight:bold;vertical-align:top;">version</td><td style="vertical-align:top;">:</td><td><div></div></td></tr></table></div></td></tr><tr><td style="font-weight:bold;vertical-align:top;">session_id_welcome</td><td style="vertical-align:top;">:</td><td><div>127.0.0.1-fcf9c79d-d640-46a9-8c42-ea5fc5770d55<table><tr><td style="font-weight:bold;vertical-align:top;">comment</td><td style="vertical-align:top;">:</td><td><div></div></td></tr><tr><td style="font-weight:bold;vertical-align:top;">domain</td><td style="vertical-align:top;">:</td><td><div></div></td></tr><tr><td style="font-weight:bold;vertical-align:top;">expires</td><td style="vertical-align:top;">:</td><td><div></div></td></tr><tr><td style="font-weight:bold;vertical-align:top;">httponly</td><td style="vertical-align:top;">:</td><td><div></div></td></tr><tr><td style="font-weight:bold;vertical-align:top;">max-age</td><td style="vertical-align:top;">:</td><td><div></div></td></tr><tr><td style="font-weight:bold;vertical-align:top;">path</td><td style="vertical-align:top;">:</td><td><div></div></td></tr><tr><td style="font-weight:bold;vertical-align:top;">secure</td><td style="vertical-align:top;">:</td><td><div></div></td></tr><tr><td style="font-weight:bold;vertical-align:top;">version</td><td style="vertical-align:top;">:</td><td><div></div></td></tr></table></div></td></tr></table></div></td></tr><tr><td style="font-weight:bold;vertical-align:top;">env</td><td style="vertical-align:top;">:</td><td><div><table><tr><td style="font-weight:bold;vertical-align:top;">HTTP_ACCEPT</td><td style="vertical-align:top;">:</td><td><div>text/html,application/xhtml+xml,application/xml;q=0.9,image/webp,*/*;q=0.8</div></td></tr><tr><td style="font-weight:bold;vertical-align:top;">HTTP_ACCEPT_ENCODING</td><td style="vertical-align:top;">:</td><td><div>gzip, deflate, sdch</div></td></tr><tr><td style="font-weight:bold;vertical-align:top;">HTTP_ACCEPT_LANGUAGE</td><td style="vertical-align:top;">:</td><td><div>en-US,en;q=0.8</div></td></tr><tr><td style="font-weight:bold;vertical-align:top;">HTTP_CACHE_CONTROL</td><td style="vertical-align:top;">:</td><td><div>max-age=0</div></td></tr><tr><td style="font-weight:bold;vertical-align:top;">HTTP_CONNECTION</td><td style="vertical-align:top;">:</td><td><div>keep-alive</div></td></tr><tr><td style="font-weight:bold;vertical-align:top;">HTTP_COOKIE</td><td style="vertical-align:top;">:</td><td><div>session_id_welcome=127.0.0.1-fcf9c79d-d640-46a9-8c42-ea5fc5770d55; session_id_admin=127.0.0.1-4625ce5a-de3a-4bab-8ab1-05dee811242c</div></td></tr><tr><td style="font-weight:bold;vertical-align:top;">HTTP_HOST</td><td style="vertical-align:top;">:</td><td><div>127.0.0.1:8000</div></td></tr><tr><td style="font-weight:bold;vertical-align:top;">HTTP_USER_AGENT</td><td style="vertical-align:top;">:</td><td><div>Mozilla/5.0 (Windows NT 6.3; WOW64) AppleWebKit/537.36 (KHTML, like Gecko) Chrome/39.0.2171.71 Safari/537.36</div></td></tr><tr><td style="font-weight:bold;vertical-align:top;">PATH_INFO</td><td style="vertical-align:top;">:</td><td><div>/app1/default/home</div></td></tr><tr><td style="font-weight:bold;vertical-align:top;">QUERY_STRING</td><td style="vertical-align:top;">:</td><td><div></div></td></tr><tr><td style="font-weight:bold;vertical-align:top;">REMOTE_ADDR</td><td style="vertical-align:top;">:</td><td><div>127.0.0.1</div></td></tr><tr><td style="font-weight:bold;vertical-align:top;">REMOTE_PORT</td><td style="vertical-align:top;">:</td><td><div>1313</div></td></tr><tr><td style="font-weight:bold;vertical-align:top;">REQUEST_METHOD</td><td style="vertical-align:top;">:</td><td><div>GET</div></td></tr><tr><td style="font-weight:bold;vertical-align:top;">SCRIPT_NAME</td><td style="vertical-align:top;">:</td><td><div></div></td></tr><tr><td style="font-weight:bold;vertical-align:top;">SERVER_NAME</td><td style="vertical-align:top;">:</td><td><div>DS</div></td></tr><tr><td style="font-weight:bold;vertical-align:top;">SERVER_PORT</td><td style="vertical-align:top;">:</td><td><div>8000</div></td></tr><tr><td style="font-weight:bold;vertical-align:top;">SERVER_PROTOCOL</td><td style="vertical-align:top;">:</td><td><div>HTTP/1.1</div></td></tr><tr><td style="font-weight:bold;vertical-align:top;">SERVER_SOFTWARE</td><td style="vertical-align:top;">:</td><td><div>Rocket 1.2.6</div></td></tr><tr><td style="font-weight:bold;vertical-align:top;">app_folders</td><td style="vertical-align:top;">:</td><td><div>set([&#x27;K:\\\\web2py_win\\\\web2py\\\\applications\\\\admin\\\\&#x27;, &#x27;K:\\\\web2py_win\\\\web2py\\\\applications\\\\app1\\\\&#x27;, &#x27;K:\\\\web2py_win\\\\web2py\\\\applications\\\\welcome\\\\&#x27;])</div></td></tr><tr><td style="font-weight:bold;vertical-align:top;">applications_parent</td><td style="vertical-align:top;">:</td><td><div>K:\\web2py_win\\web2py</div></td></tr><tr><td style="font-weight:bold;vertical-align:top;">cmd_args</td><td style="vertical-align:top;">:</td><td><div><table></table></div></td></tr><tr><td style="font-weight:bold;vertical-align:top;">cmd_options</td><td style="vertical-align:top;">:</td><td><div>&lt;Values at 0x1ef4670: {&#x27;verbose&#x27;: False, &#x27;ip&#x27;: &#x27;127.0.0.1&#x27;, &#x27;debuglevel&#x27;: 30, &#x27;with_scheduler&#x27;: False, &#x27;ips&#x27;: [&#x27;fe80::817b:1680:b17a:2e9c%4&#x27;, &#x27;10.9.11.113&#x27;], &#x27;shutdown_timeout&#x27;: 5, &#x27;taskbar&#x27;: False, &#x27;with_coverage&#x27;: False, &#x27;scheduler_groups&#x27;: None, &#x27;port&#x27;: 8000, &#x27;maxthreads&#x27;: None, &#x27;softcron&#x27;: False, &#x27;server_name&#x27;: &#x27;DS&#x27;, &#x27;bpython&#x27;: False, &#x27;nogui&#x27;: False, &#x27;pid_filename&#x27;: &#x27;httpserver.pid&#x27;, &#x27;extcron&#x27;: False, &#x27;runcron&#x27;: False, &#x27;run_system_tests&#x27;: False, &#x27;test&#x27;: None, &#x27;folder&#x27;: &#x27;K:\\\\web2py_win\\\\web2py&#x27;, &#x27;config&#x27;: &#x27;&#x27;, &#x27;minthreads&#x27;: None, &#x27;shell&#x27;: None, &#x27;run&#x27;: &#x27;&#x27;, &#x27;log_filename&#x27;: &#x27;httpserver.log&#x27;, &#x27;profiler_dir&#x27;: None, &#x27;args&#x27;: [&#x27;&#x27;], &#x27;socket_timeout&#x27;: 5, &#x27;ssl_ca_certificate&#x27;: None, &#x27;scheduler&#x27;: None, &#x27;interfaces&#x27;: None, &#x27;ssl_private_key&#x27;: &#x27;&#x27;, &#x27;gae&#x27;: None, &#x27;password&#x27;: &#x27;&lt;ask&gt;&#x27;, &#x27;request_queue_size&#x27;: 5, &#x27;ssl_certificate&#x27;: &#x27;&#x27;, &#x27;cronjob&#x27;: False, &#x27;numthreads&#x27;: None, &#x27;quiet&#x27;: False, &#x27;import_models&#x27;: False, &#x27;timeout&#x27;: 10, &#x27;plain&#x27;: False, &#x27;nobanner&#x27;: False}&gt;</div></td></tr><tr><td style="font-weight:bold;vertical-align:top;">db_sessions</td><td style="vertical-align:top;">:</td><td><div>set([])</div></td></tr><tr><td style="font-weight:bold;vertical-align:top;">debugging</td><td style="vertical-align:top;">:</td><td><div>True</div></td></tr><tr><td style="font-weight:bold;vertical-align:top;">gluon_parent</td><td style="vertical-align:top;">:</td><td><div>K:\\web2py_win\\web2py</div></td></tr><tr><td style="font-weight:bold;vertical-align:top;">http_accept</td><td style="vertical-align:top;">:</td><td><div>text/html,application/xhtml+xml,application/xml;q=0.9,image/webp,*/*;q=0.8</div></td></tr><tr><td style="font-weight:bold;vertical-align:top;">http_accept_encoding</td><td style="vertical-align:top;">:</td><td><div>gzip, deflate, sdch</div></td></tr><tr><td style="font-weight:bold;vertical-align:top;">http_accept_language</td><td style="vertical-align:top;">:</td><td><div>en-US,en;q=0.8</div></td></tr><tr><td style="font-weight:bold;vertical-align:top;">http_cache_control</td><td style="vertical-align:top;">:</td><td><div>max-age=0</div></td></tr><tr><td style="font-weight:bold;vertical-align:top;">http_connection</td><td style="vertical-align:top;">:</td><td><div>keep-alive</div></td></tr><tr><td style="font-weight:bold;vertical-align:top;">http_cookie</td><td style="vertical-align:top;">:</td><td><div>session_id_welcome=127.0.0.1-fcf9c79d-d640-46a9-8c42-ea5fc5770d55; session_id_admin=127.0.0.1-4625ce5a-de3a-4bab-8ab1-05dee811242c</div></td></tr><tr><td style="font-weight:bold;vertical-align:top;">http_host</td><td style="vertical-align:top;">:</td><td><div>127.0.0.1:8000</div></td></tr><tr><td style="font-weight:bold;vertical-align:top;">http_user_agent</td><td style="vertical-align:top;">:</td><td><div>Mozilla/5.0 (Windows NT 6.3; WOW64) AppleWebKit/537.36 (KHTML, like Gecko) Chrome/39.0.2171.71 Safari/537.36</div></td></tr><tr><td style="font-weight:bold;vertical-align:top;">is_jython</td><td style="vertical-align:top;">:</td><td><div>False</div></td></tr><tr><td style="font-weight:bold;vertical-align:top;">is_pypy</td><td style="vertical-align:top;">:</td><td><div>False</div></td></tr><tr><td style="font-weight:bold;vertical-align:top;">is_source</td><td style="vertical-align:top;">:</td><td><div>False</div></td></tr><tr><td style="font-weight:bold;vertical-align:top;">local_hosts</td><td style="vertical-align:top;">:</td><td><div><table><tr><td><div>fe80::817b:1680:b17a:2e9c%4</div></td></tr><tr><td><div>::ffff:127.0.0.1</div></td></tr><tr><td><div>::1</div></td></tr><tr><td><div>10.9.11.113</div></td></tr><tr><td><div>DS</div></td></tr><tr><td><div>127.0.0.1</div></td></tr></table></div></td></tr><tr><td style="font-weight:bold;vertical-align:top;">path_info</td><td style="vertical-align:top;">:</td><td><div>/app1/default/home</div></td></tr><tr><td style="font-weight:bold;vertical-align:top;">query_string</td><td style="vertical-align:top;">:</td><td><div></div></td></tr><tr><td style="font-weight:bold;vertical-align:top;">remote_addr</td><td style="vertical-align:top;">:</td><td><div>127.0.0.1</div></td></tr><tr><td style="font-weight:bold;vertical-align:top;">remote_port</td><td style="vertical-align:top;">:</td><td><div>1313</div></td></tr><tr><td style="font-weight:bold;vertical-align:top;">request_method</td><td style="vertical-align:top;">:</td><td><div>GET</div></td></tr><tr><td style="font-weight:bold;vertical-align:top;">request_uri</td><td style="vertical-align:top;">:</td><td><div>/app1/default/home</div></td></tr><tr><td style="font-weight:bold;vertical-align:top;">script_name</td><td style="vertical-align:top;">:</td><td><div></div></td></tr><tr><td style="font-weight:bold;vertical-align:top;">server_name</td><td style="vertical-align:top;">:</td><td><div>DS</div></td></tr><tr><td style="font-weight:bold;vertical-align:top;">server_port</td><td style="vertical-align:top;">:</td><td><div>8000</div></td></tr><tr><td style="font-weight:bold;vertical-align:top;">server_protocol</td><td style="vertical-align:top;">:</td><td><div>HTTP/1.1</div></td></tr><tr><td style="font-weight:bold;vertical-align:top;">server_software</td><td style="vertical-align:top;">:</td><td><div>Rocket 1.2.6</div></td></tr><tr><td style="font-weight:bold;vertical-align:top;">web2py_path</td><td style="vertical-align:top;">:</td><td><div>K:\\web2py_win\\web2py</div></td></tr><tr><td style="font-weight:bold;vertical-align:top;">web2py_version</td><td style="vertical-align:top;">:</td><td><div>2.9.11-stable+timestamp.2014.09.15.23.35.11</div></td></tr><tr><td style="font-weight:bold;vertical-align:top;">wsgi.errors</td><td style="vertical-align:top;">:</td><td><div>&lt;open file &#x27;&lt;stderr&gt;&#x27;, mode &#x27;w&#x27; at 0x005E60D0&gt;</div></td></tr><tr><td style="font-weight:bold;vertical-align:top;">wsgi.file_wrapper</td><td style="vertical-align:top;">:</td><td><div>&lt;class wsgiref.util.FileWrapper at 0x02E8FA78&gt;</div></td></tr><tr><td style="font-weight:bold;vertical-align:top;">wsgi.input</td><td style="vertical-align:top;">:</td><td><div>&lt;socket._fileobject object at 0x06CA3370&gt;</div></td></tr><tr><td style="font-weight:bold;vertical-align:top;">wsgi.multiprocess</td><td style="vertical-align:top;">:</td><td><div>False</div></td></tr><tr><td style="font-weight:bold;vertical-align:top;">wsgi.multithread</td><td style="vertical-align:top;">:</td><td><div>True</div></td></tr><tr><td style="font-weight:bold;vertical-align:top;">wsgi.run_once</td><td style="vertical-align:top;">:</td><td><div>False</div></td></tr><tr><td style="font-weight:bold;vertical-align:top;">wsgi.url_scheme</td><td style="vertical-align:top;">:</td><td><div>http</div></td></tr><tr><td style="font-weight:bold;vertical-align:top;">wsgi.version</td><td style="vertical-align:top;">:</td><td><div><table><tr><td><div>1</div></td></tr><tr><td><div>0</div></td></tr></table></div></td></tr><tr><td style="font-weight:bold;vertical-align:top;">wsgi_errors</td><td style="vertical-align:top;">:</td><td><div>&lt;open file &#x27;&lt;stderr&gt;&#x27;, mode &#x27;w&#x27; at 0x005E60D0&gt;</div></td></tr><tr><td style="font-weight:bold;vertical-align:top;">wsgi_file_wrapper</td><td style="vertical-align:top;">:</td><td><div>&lt;class wsgiref.util.FileWrapper at 0x02E8FA78&gt;</div></td></tr><tr><td style="font-weight:bold;vertical-align:top;">wsgi_input</td><td style="vertical-align:top;">:</td><td><div>&lt;socket._fileobject object at 0x06CA3370&gt;</div></td></tr><tr><td style="font-weight:bold;vertical-align:top;">wsgi_multiprocess</td><td style="vertical-align:top;">:</td><td><div>False</div></td></tr><tr><td style="font-weight:bold;vertical-align:top;">wsgi_multithread</td><td style="vertical-align:top;">:</td><td><div>True</div></td></tr><tr><td style="font-weight:bold;vertical-align:top;">wsgi_run_once</td><td style="vertical-align:top;">:</td><td><div>False</div></td></tr><tr><td style="font-weight:bold;vertical-align:top;">wsgi_url_scheme</td><td style="vertical-align:top;">:</td><td><div>http</div></td></tr><tr><td style="font-weight:bold;vertical-align:top;">wsgi_version</td><td style="vertical-align:top;">:</td><td><div><table><tr><td><div>1</div></td></tr><tr><td><div>0</div></td></tr></table></div></td></tr></table></div></td></tr><tr><td style="font-weight:bold;vertical-align:top;">extension</td><td style="vertical-align:top;">:</td><td><div>html</div></td></tr><tr><td style="font-weight:bold;vertical-align:top;">folder</td><td style="vertical-align:top;">:</td><td><div>K:\\web2py_win\\web2py\\applications\\app1\\</div></td></tr><tr><td style="font-weight:bold;vertical-align:top;">function</td><td style="vertical-align:top;">:</td><td><div>home</div></td></tr><tr><td style="font-weight:bold;vertical-align:top;">global_settings</td><td style="vertical-align:top;">:</td><td><div><table><tr><td style="font-weight:bold;vertical-align:top;">app_folders</td><td style="vertical-align:top;">:</td><td><div>set([&#x27;K:\\\\web2py_win\\\\web2py\\\\applications\\\\admin\\\\&#x27;, &#x27;K:\\\\web2py_win\\\\web2py\\\\applications\\\\app1\\\\&#x27;, &#x27;K:\\\\web2py_win\\\\web2py\\\\applications\\\\welcome\\\\&#x27;])</div></td></tr><tr><td style="font-weight:bold;vertical-align:top;">applications_parent</td><td style="vertical-align:top;">:</td><td><div>K:\\web2py_win\\web2py</div></td></tr><tr><td style="font-weight:bold;vertical-align:top;">cmd_args</td><td style="vertical-align:top;">:</td><td><div><table></table></div></td></tr><tr><td style="font-weight:bold;vertical-align:top;">cmd_options</td><td style="vertical-align:top;">:</td><td><div>&lt;Values at 0x1ef4670: {&#x27;verbose&#x27;: False, &#x27;ip&#x27;: &#x27;127.0.0.1&#x27;, &#x27;debuglevel&#x27;: 30, &#x27;with_scheduler&#x27;: False, &#x27;ips&#x27;: [&#x27;fe80::817b:1680:b17a:2e9c%4&#x27;, &#x27;10.9.11.113&#x27;], &#x27;shutdown_timeout&#x27;: 5, &#x27;taskbar&#x27;: False, &#x27;with_coverage&#x27;: False, &#x27;scheduler_groups&#x27;: None, &#x27;port&#x27;: 8000, &#x27;maxthreads&#x27;: None, &#x27;softcron&#x27;: False, &#x27;server_name&#x27;: &#x27;DS&#x27;, &#x27;bpython&#x27;: False, &#x27;nogui&#x27;: False, &#x27;pid_filename&#x27;: &#x27;httpserver.pid&#x27;, &#x27;extcron&#x27;: False, &#x27;runcron&#x27;: False, &#x27;run_system_tests&#x27;: False, &#x27;test&#x27;: None, &#x27;folder&#x27;: &#x27;K:\\\\web2py_win\\\\web2py&#x27;, &#x27;config&#x27;: &#x27;&#x27;, &#x27;minthreads&#x27;: None, &#x27;shell&#x27;: None, &#x27;run&#x27;: &#x27;&#x27;, &#x27;log_filename&#x27;: &#x27;httpserver.log&#x27;, &#x27;profiler_dir&#x27;: None, &#x27;args&#x27;: [&#x27;&#x27;], &#x27;socket_timeout&#x27;: 5, &#x27;ssl_ca_certificate&#x27;: None, &#x27;scheduler&#x27;: None, &#x27;interfaces&#x27;: None, &#x27;ssl_private_key&#x27;: &#x27;&#x27;, &#x27;gae&#x27;: None, &#x27;password&#x27;: &#x27;&lt;ask&gt;&#x27;, &#x27;request_queue_size&#x27;: 5, &#x27;ssl_certificate&#x27;: &#x27;&#x27;, &#x27;cronjob&#x27;: False, &#x27;numthreads&#x27;: None, &#x27;quiet&#x27;: False, &#x27;import_models&#x27;: False, &#x27;timeout&#x27;: 10, &#x27;plain&#x27;: False, &#x27;nobanner&#x27;: False}&gt;</div></td></tr><tr><td style="font-weight:bold;vertical-align:top;">db_sessions</td><td style="vertical-align:top;">:</td><td><div>set([])</div></td></tr><tr><td style="font-weight:bold;vertical-align:top;">debugging</td><td style="vertical-align:top;">:</td><td><div>True</div></td></tr><tr><td style="font-weight:bold;vertical-align:top;">gluon_parent</td><td style="vertical-align:top;">:</td><td><div>K:\\web2py_win\\web2py</div></td></tr><tr><td style="font-weight:bold;vertical-align:top;">is_jython</td><td style="vertical-align:top;">:</td><td><div>False</div></td></tr><tr><td style="font-weight:bold;vertical-align:top;">is_pypy</td><td style="vertical-align:top;">:</td><td><div>False</div></td></tr><tr><td style="font-weight:bold;vertical-align:top;">is_source</td><td style="vertical-align:top;">:</td><td><div>False</div></td></tr><tr><td style="font-weight:bold;vertical-align:top;">local_hosts</td><td style="vertical-align:top;">:</td><td><div><table><tr><td><div>fe80::817b:1680:b17a:2e9c%4</div></td></tr><tr><td><div>::ffff:127.0.0.1</div></td></tr><tr><td><div>::1</div></td></tr><tr><td><div>10.9.11.113</div></td></tr><tr><td><div>DS</div></td></tr><tr><td><div>127.0.0.1</div></td></tr></table></div></td></tr><tr><td style="font-weight:bold;vertical-align:top;">web2py_version</td><td style="vertical-align:top;">:</td><td><div>2.9.11-stable+timestamp.2014.09.15.23.35.11</div></td></tr></table></div></td></tr><tr><td style="font-weight:bold;vertical-align:top;">is_https</td><td style="vertical-align:top;">:</td><td><div>False</div></td></tr><tr><td style="font-weight:bold;vertical-align:top;">is_local</td><td style="vertical-align:top;">:</td><td><div>True</div></td></tr><tr><td style="font-weight:bold;vertical-align:top;">is_restful</td><td style="vertical-align:top;">:</td><td><div>False</div></td></tr><tr><td style="font-weight:bold;vertical-align:top;">is_sheduler</td><td style="vertical-align:top;">:</td><td><div>None</div></td></tr><tr><td style="font-weight:bold;vertical-align:top;">is_shell</td><td style="vertical-align:top;">:</td><td><div>None</div></td></tr><tr><td style="font-weight:bold;vertical-align:top;">now</td><td style="vertical-align:top;">:</td><td><div>datetime.datetime(2014, 11, 29, 0, 48, 2, 196000)</div></td></tr><tr><td style="font-weight:bold;vertical-align:top;">raw_args</td><td style="vertical-align:top;">:</td><td><div></div></td></tr><tr><td style="font-weight:bold;vertical-align:top;">raw_extension</td><td style="vertical-align:top;">:</td><td><div>None</div></td></tr><tr><td style="font-weight:bold;vertical-align:top;">url</td><td style="vertical-align:top;">:</td><td><div>/app1/default/home</div></td></tr><tr><td style="font-weight:bold;vertical-align:top;">utcnow</td><td style="vertical-align:top;">:</td><td><div>datetime.datetime(2014, 11, 28, 19, 18, 2, 196000)</div></td></tr><tr><td style="font-weight:bold;vertical-align:top;">uuid</td><td style="vertical-align:top;">:</td><td><div>app1/127.0.0.1.2014-11-29.00-48-02.a88da018-bf8b-4e80-8cf6-e38f0bd51688</div></td></tr><tr><td style="font-weight:bold;vertical-align:top;">wsgi</td><td style="vertical-align:top;">:</td><td><div>&lt;gluon.main.LazyWSGI object at 0x06CF14D0&gt;</div></td></tr></table></div>'
tRp58
sS'frames'
p59
(lp60
(dp61
S'file'
p62
S'K:\\web2py_win\\web2py\\gluon\\restricted.py'
p63
sS'dump'
p64
(dp65
sS'lnum'
p66
I224
sS'lines'
p67
(dp68
sS'call'
p69
S'(code="# -*- coding: utf-8 -*-\\ndb.define_table(\'abb\')\\nd...\\n                auth.signature\\n               )\\n", environment={\'A\': <class \'gluon.html.A\'>, \'ANY_OF\': <class \'gluon.validators.ANY_OF\'>, \'ASSIGNJS\': <function ASSIGNJS>, \'Auth\': <class \'gluon.tools.Auth\'>, \'B\': <class \'gluon.html.B\'>, \'BEAUTIFY\': <class \'gluon.html.BEAUTIFY\'>, \'BODY\': <class \'gluon.html.BODY\'>, \'BR\': <class \'gluon.html.BR\'>, \'BUTTON\': <class \'gluon.html.BUTTON\'>, \'CAT\': <class \'gluon.html.CAT\'>, ...}, layer=r\'K:\\web2py_win\\web2py\\applications\\app1\\models\\db1.py\')'
p70
sS'func'
p71
S'restricted'
p72
sa(dp73
g62
S'K:\\web2py_win\\web2py\\applications\\app1\\models\\db1.py'
p74
sg64
(dp75
S'default'
p76
S'undefined'
p77
sS'Field'
p78
S"<class 'gluon.dal.Field'>"
p79
sS'now'
p80
g77
ssg66
I6
sg67
(dp81
I2
S"db.define_table('abb')"
p82
sI3
S"db.define_table('web2py_session',"
p83
sI4
S"                 Field('locked', 'boolean', default=False),"
p84
sI5
S"                 Field('client_ip'),"
p85
sI6
S"                 Field('created_datetime', 'datetime', default=now),"
p86
sI7
S"                 Field('modified_datetime', 'datetime'),"
p87
sI8
S"                 Field('unique_key'),"
p88
sI9
S"                 Field('session_data', 'text'))"
p89
sI10
S"db.define_table('local_handlooms',"
p90
sI11
S"               Field('ID_LH','string',requires=IS_NOT_EMPTY()),"
p91
ssg69
S'()'
p92
sg71
S'<module>'
p93
sasS'pyver'
p94
S'Python 2.7.6: K:\\web2py_win\\web2py\\web2py.exe (prefix: C:\\Python27)'
p95
sS'session'
p96
g57
(S's\x1a\x00\x00\x00<div><table></table></div>'
tRp97
sS'etype'
p98
S"<type 'exceptions.NameError'>"
p99
sS'date'
p100
S'Sat Nov 29 00:48:02 2014'
p101
sS'response'
p102
g57
(S's\xa4\x16\x00\x00<div><table><tr><td style="font-weight:bold;vertical-align:top;">body</td><td style="vertical-align:top;">:</td><td><div>&lt;cStringIO.StringO object at 0x06CF1200&gt;</div></td></tr><tr><td style="font-weight:bold;vertical-align:top;">cookies</td><td style="vertical-align:top;">:</td><td><div><table><tr><td style="font-weight:bold;vertical-align:top;">session_id_app1</td><td style="vertical-align:top;">:</td><td><div>127.0.0.1-d76edbf0-eefe-4d2e-a218-ba543653ecae<table><tr><td style="font-weight:bold;vertical-align:top;">comment</td><td style="vertical-align:top;">:</td><td><div></div></td></tr><tr><td style="font-weight:bold;vertical-align:top;">domain</td><td style="vertical-align:top;">:</td><td><div></div></td></tr><tr><td style="font-weight:bold;vertical-align:top;">expires</td><td style="vertical-align:top;">:</td><td><div></div></td></tr><tr><td style="font-weight:bold;vertical-align:top;">httponly</td><td style="vertical-align:top;">:</td><td><div></div></td></tr><tr><td style="font-weight:bold;vertical-align:top;">max-age</td><td style="vertical-align:top;">:</td><td><div></div></td></tr><tr><td style="font-weight:bold;vertical-align:top;">path</td><td style="vertical-align:top;">:</td><td><div>/</div></td></tr><tr><td style="font-weight:bold;vertical-align:top;">secure</td><td style="vertical-align:top;">:</td><td><div></div></td></tr><tr><td style="font-weight:bold;vertical-align:top;">version</td><td style="vertical-align:top;">:</td><td><div></div></td></tr></table></div></td></tr></table></div></td></tr><tr><td style="font-weight:bold;vertical-align:top;">delimiters</td><td style="vertical-align:top;">:</td><td><div><table><tr><td><div>{{</div></td></tr><tr><td><div>}}</div></td></tr></table></div></td></tr><tr><td style="font-weight:bold;vertical-align:top;">files</td><td style="vertical-align:top;">:</td><td><div><table></table></div></td></tr><tr><td style="font-weight:bold;vertical-align:top;">flash</td><td style="vertical-align:top;">:</td><td><div></div></td></tr><tr><td style="font-weight:bold;vertical-align:top;">form_label_separator</td><td style="vertical-align:top;">:</td><td><div>: </div></td></tr><tr><td style="font-weight:bold;vertical-align:top;">formstyle</td><td style="vertical-align:top;">:</td><td><div>table3cols</div></td></tr><tr><td style="font-weight:bold;vertical-align:top;">generic_patterns</td><td style="vertical-align:top;">:</td><td><div><table><tr><td><div>*</div></td></tr></table></div></td></tr><tr><td style="font-weight:bold;vertical-align:top;">headers</td><td style="vertical-align:top;">:</td><td><div><table><tr><td style="font-weight:bold;vertical-align:top;">X-Powered-By</td><td style="vertical-align:top;">:</td><td><div>web2py</div></td></tr></table></div></td></tr><tr><td style="font-weight:bold;vertical-align:top;">menu</td><td style="vertical-align:top;">:</td><td><div><table></table></div></td></tr><tr><td style="font-weight:bold;vertical-align:top;">meta</td><td style="vertical-align:top;">:</td><td><div><table></table></div></td></tr><tr><td style="font-weight:bold;vertical-align:top;">models_to_run</td><td style="vertical-align:top;">:</td><td><div><table><tr><td><div>^\\w+\\.py$</div></td></tr><tr><td><div>^default/\\w+\\.py$</div></td></tr><tr><td><div>^default/home/\\w+\\.py$</div></td></tr></table></div></td></tr><tr><td style="font-weight:bold;vertical-align:top;">postprocessing</td><td style="vertical-align:top;">:</td><td><div><table></table></div></td></tr><tr><td style="font-weight:bold;vertical-align:top;">session_client</td><td style="vertical-align:top;">:</td><td><div>127.0.0.1</div></td></tr><tr><td style="font-weight:bold;vertical-align:top;">session_cookie_compression_level</td><td style="vertical-align:top;">:</td><td><div>None</div></td></tr><tr><td style="font-weight:bold;vertical-align:top;">session_cookie_expires</td><td style="vertical-align:top;">:</td><td><div>None</div></td></tr><tr><td style="font-weight:bold;vertical-align:top;">session_cookie_key</td><td style="vertical-align:top;">:</td><td><div>None</div></td></tr><tr><td style="font-weight:bold;vertical-align:top;">session_data_name</td><td style="vertical-align:top;">:</td><td><div>session_data_app1</div></td></tr><tr><td style="font-weight:bold;vertical-align:top;">session_file</td><td style="vertical-align:top;">:</td><td><div>None</div></td></tr><tr><td style="font-weight:bold;vertical-align:top;">session_filename</td><td style="vertical-align:top;">:</td><td><div>K:\\web2py_win\\web2py\\applications\\app1\\sessions\\127.0.0.1-d76edbf0-eefe-4d2e-a218-ba543653ecae</div></td></tr><tr><td style="font-weight:bold;vertical-align:top;">session_hash</td><td style="vertical-align:top;">:</td><td><div>c0762cbf4baf7f9af97c051e7fcb8083</div></td></tr><tr><td style="font-weight:bold;vertical-align:top;">session_id</td><td style="vertical-align:top;">:</td><td><div>127.0.0.1-d76edbf0-eefe-4d2e-a218-ba543653ecae</div></td></tr><tr><td style="font-weight:bold;vertical-align:top;">session_id_name</td><td style="vertical-align:top;">:</td><td><div>session_id_app1</div></td></tr><tr><td style="font-weight:bold;vertical-align:top;">session_masterapp</td><td style="vertical-align:top;">:</td><td><div>app1</div></td></tr><tr><td style="font-weight:bold;vertical-align:top;">session_new</td><td style="vertical-align:top;">:</td><td><div>True</div></td></tr><tr><td style="font-weight:bold;vertical-align:top;">session_storage_type</td><td style="vertical-align:top;">:</td><td><div>file</div></td></tr><tr><td style="font-weight:bold;vertical-align:top;">status</td><td style="vertical-align:top;">:</td><td><div>200</div></td></tr><tr><td style="font-weight:bold;vertical-align:top;">view</td><td style="vertical-align:top;">:</td><td><div>default/home.html</div></td></tr></table></div>'
tRp103
sS'locals'
p104
(dp105
S'Service'
p106
S"<class 'gluon.tools.Service'>"
p107
sS'OBJECT'
p108
S"<class 'gluon.html.OBJECT'>"
p109
sS'SQLDB'
p110
S"<class 'gluon.dal.DAL'>"
p111
sg96
S'<Storage {}>'
p112
sS'LINK'
p113
S"<class 'gluon.html.LINK'>"
p114
sS'BR'
p115
S"<class 'gluon.html.BR'>"
p116
sS'local_import'
p117
S'<function <lambda>>'
p118
sS'OPTGROUP'
p119
S"<class 'gluon.html.OPTGROUP'>"
p120
sS'LI'
p121
S"<class 'gluon.html.LI'>"
p122
sS'PRE'
p123
S"<class 'gluon.html.PRE'>"
p124
sS'IS_INT_IN_RANGE'
p125
S"<class 'gluon.validators.IS_INT_IN_RANGE'>"
p126
sS'IS_LOWER'
p127
S"<class 'gluon.validators.IS_LOWER'>"
p128
sS'IS_STRONG'
p129
S"<class 'gluon.validators.IS_STRONG'>"
p130
sS'cache'
p131
S'<gluon.cache.Cache object>'
p132
sS'IS_IN_DB'
p133
S"<class 'gluon.validators.IS_IN_DB'>"
p134
sS'TAG'
p135
S'<gluon.html.__TAG__ object>'
p136
sS'SQLField'
p137
S"<class 'gluon.dal.Field'>"
p138
sS'mail'
p139
S'<gluon.tools.Mail object>'
p140
sS'BODY'
p141
S"<class 'gluon.html.BODY'>"
p142
sS'IS_DATE_IN_RANGE'
p143
S"<class 'gluon.validators.IS_DATE_IN_RANGE'>"
p144
sS'TH'
p145
S"<class 'gluon.html.TH'>"
p146
sS'URL'
p147
S'<function URL>'
p148
sS'__file__'
p149
S"r'K:\\web2py_win\\web2py\\applications\\app1\\models\\db1.py'"
p150
sS'db'
p151
S'<DAL uri="sqlite://storage.sqlite">'
p152
sS'auth'
p153
S'<gluon.tools.Auth object>'
p154
sS'P'
S"<class 'gluon.html.P'>"
p155
sS'TFOOT'
p156
S"<class 'gluon.html.TFOOT'>"
p157
sS'XHTML'
p158
S"<class 'gluon.html.XHTML'>"
p159
sS'rpxform'
p160
S'<gluon.contrib.login_methods.rpx_account.RPXAccount object>'
p161
sS'ON'
p162
S'True'
p163
sS'OL'
p164
S"<class 'gluon.html.OL'>"
p165
sS'TEXTAREA'
p166
S"<class 'gluon.html.TEXTAREA'>"
p167
sS'MENU'
p168
S"<class 'gluon.html.MENU'>"
p169
sS'LOAD'
p170
S'<function LOAD>'
p171
sS'CODE'
p172
S"<class 'gluon.html.CODE'>"
p173
sS'HTTP'
p174
S"<class 'gluon.http.HTTP'>"
p175
sS'HR'
p176
S"<class 'gluon.html.HR'>"
p177
sS'IS_DATETIME'
p178
S"<class 'gluon.validators.IS_DATETIME'>"
p179
sS'HEAD'
p180
S"<class 'gluon.html.HEAD'>"
p181
sS'LABEL'
p182
S"<class 'gluon.html.LABEL'>"
p183
sS'CLEANUP'
p184
S"<class 'gluon.validators.CLEANUP'>"
p185
sS'plugins'
p186
S'<gluon.tools.PluginManager object>'
p187
sS'SELECT'
p188
S"<class 'gluon.html.SELECT'>"
p189
sS'use_janrain'
p190
S'<function use_janrain>'
p191
sS'CENTER'
p192
S"<class 'gluon.html.CENTER'>"
p193
sS'custom_auth_table'
p194
S'<Table auth_user (id,first_name,last_name,email,...stration_key,reset_password_key,registration_id)>'
p195
sS'Auth'
p196
S"<class 'gluon.tools.Auth'>"
p197
sS'__builtins__'
p198
S"{'ArithmeticError': <type 'exceptions.ArithmeticError'>, 'AssertionError': <type 'exceptions.AssertionError'>, 'AttributeError': <type 'exceptions.AttributeError'>, 'BaseException': <type 'exceptions.BaseException'>, 'BufferError': <type 'exceptions.BufferError'>, 'BytesWarning': <type 'exceptions.BytesWarning'>, 'DeprecationWarning': <type 'exceptions.DeprecationWarning'>, 'EOFError': <type 'exceptions.EOFError'>, 'Ellipsis': Ellipsis, 'EnvironmentError': <type 'exceptions.EnvironmentError'>, ...}"
p199
sS'HTML'
p200
S"<class 'gluon.html.HTML'>"
p201
sS'SQLFORM'
p202
S"<class 'gluon.sqlhtml.SQLFORM'>"
p203
sS'EM'
p204
S"<class 'gluon.html.EM'>"
p205
sS'redirect'
p206
S'<function redirect>'
p207
sS'FIELDSET'
p208
S"<class 'gluon.html.FIELDSET'>"
p209
sS'IS_EQUAL_TO'
p210
S"<class 'gluon.validators.IS_EQUAL_TO'>"
p211
sS'embed64'
p212
S'<function embed64>'
p213
sS'IS_LIST_OF'
p214
S"<class 'gluon.validators.IS_LIST_OF'>"
p215
sS'__name__'
p216
S"'__restricted__'"
p217
sS'EMBED'
p218
S"<class 'gluon.html.EMBED'>"
p219
sS'FORM'
p220
S"<class 'gluon.html.FORM'>"
p221
sS'H2'
p222
S"<class 'gluon.html.H2'>"
p223
sS'H3'
p224
S"<class 'gluon.html.H3'>"
p225
sS'BUTTON'
p226
S"<class 'gluon.html.BUTTON'>"
p227
sS'H1'
p228
S"<class 'gluon.html.H1'>"
p229
sS'H6'
p230
S"<class 'gluon.html.H6'>"
p231
sS'H4'
p232
S"<class 'gluon.html.H4'>"
p233
sS'H5'
p234
S"<class 'gluon.html.H5'>"
p235
sS'UL'
p236
S"<class 'gluon.html.UL'>"
p237
sS'IS_UPPER'
p238
S"<class 'gluon.validators.IS_UPPER'>"
p239
sS'xmlescape'
p240
S'<function xmlescape>'
p241
sS'IS_TIME'
p242
S"<class 'gluon.validators.IS_TIME'>"
p243
sS'OPTION'
p244
S"<class 'gluon.html.OPTION'>"
p245
sS'TITLE'
p246
S"<class 'gluon.html.TITLE'>"
p247
sS'CRYPT'
p248
S"<class 'gluon.validators.CRYPT'>"
p249
sS'IS_EMPTY_OR'
p250
S"<class 'gluon.validators.IS_EMPTY_OR'>"
p251
sS'MARKMIN'
p252
S"<class 'gluon.html.MARKMIN'>"
p253
sS'INPUT'
p254
S"<class 'gluon.html.INPUT'>"
p255
sS'STRONG'
p256
S"<class 'gluon.html.STRONG'>"
p257
sS'COL'
p258
S"<class 'gluon.html.COL'>"
p259
sS'service'
p260
S'<gluon.tools.Service object>'
p261
sS'SCRIPT'
p262
S"<class 'gluon.html.SCRIPT'>"
p263
sS'TABLE'
p264
S"<class 'gluon.html.TABLE'>"
p265
sS'IS_IPV4'
p266
S"<class 'gluon.validators.IS_IPV4'>"
p267
sS'IS_LENGTH'
p268
S"<class 'gluon.validators.IS_LENGTH'>"
p269
sS'IS_IPV6'
p270
S"<class 'gluon.validators.IS_IPV6'>"
p271
sS'XML'
p272
S"<class 'gluon.html.XML'>"
p273
sS'B'
S"<class 'gluon.html.B'>"
p274
sS'IMG'
p275
S"<class 'gluon.html.IMG'>"
p276
sS'SQLTABLE'
p277
S"<class 'gluon.sqlhtml.SQLTABLE'>"
p278
sS'IS_MATCH'
p279
S"<class 'gluon.validators.IS_MATCH'>"
p280
sS'IS_ALPHANUMERIC'
p281
S"<class 'gluon.validators.IS_ALPHANUMERIC'>"
p282
sS'SPAN'
p283
S"<class 'gluon.html.SPAN'>"
p284
sS'IS_JSON'
p285
S"<class 'gluon.validators.IS_JSON'>"
p286
sS'Field'
p287
S"<class 'gluon.dal.Field'>"
p288
sS'IS_IPADDRESS'
p289
S"<class 'gluon.validators.IS_IPADDRESS'>"
p290
sS'IS_SLUG'
p291
S"<class 'gluon.validators.IS_SLUG'>"
p292
sS'BEAUTIFY'
p293
S"<class 'gluon.html.BEAUTIFY'>"
p294
sS'META'
p295
S"<class 'gluon.html.META'>"
p296
sS'IS_DATE'
p297
S"<class 'gluon.validators.IS_DATE'>"
p298
sS'IS_EMAIL'
p299
S"<class 'gluon.validators.IS_EMAIL'>"
p300
sS'IS_NOT_EMPTY'
p301
S"<class 'gluon.validators.IS_NOT_EMPTY'>"
p302
sg56
S"<Storage {'_vars': <Storage {}>, 'function': 'ho... 'K:\\\\web2py_win\\\\web2py\\\\applications\\\\app1\\\\'}>"
p303
sS'TBODY'
p304
S"<class 'gluon.html.TBODY'>"
p305
sS'CAT'
p306
S"<class 'gluon.html.CAT'>"
p307
sS'ExtendedLoginForm'
p308
S"<class 'gluon.contrib.login_methods.extended_login_form.ExtendedLoginForm'>"
p309
sS'IS_LIST_OF_EMAILS'
p310
S"<class 'gluon.validators.IS_LIST_OF_EMAILS'>"
p311
sS'DIV'
p312
S"<class 'gluon.html.DIV'>"
p313
sS'LEGEND'
p314
S"<class 'gluon.html.LEGEND'>"
p315
sS'COLGROUP'
p316
S"<class 'gluon.html.COLGROUP'>"
p317
sS'DAL'
p318
S"<class 'gluon.dal.DAL'>"
p319
sS'ASSIGNJS'
p320
S'<function ASSIGNJS>'
p321
sS'TR'
p322
S"<class 'gluon.html.TR'>"
p323
sS'__package__'
p324
S'None'
p325
sS'IFRAME'
p326
S"<class 'gluon.html.IFRAME'>"
p327
sS'TD'
p328
S"<class 'gluon.html.TD'>"
p329
sS'PluginManager'
p330
S"<class 'gluon.tools.PluginManager'>"
p331
sS'IS_URL'
p332
S"<class 'gluon.validators.IS_URL'>"
p333
sS'A'
S"<class 'gluon.html.A'>"
p334
sS'STYLE'
p335
S"<class 'gluon.html.STYLE'>"
p336
sS'IS_DATETIME_IN_RANGE'
p337
S"<class 'gluon.validators.IS_DATETIME_IN_RANGE'>"
p338
sS'IS_IMAGE'
p339
S"<class 'gluon.validators.IS_IMAGE'>"
p340
sS'I'
S"<class 'gluon.html.I'>"
p341
sS'IS_NOT_IN_DB'
p342
S"<class 'gluon.validators.IS_NOT_IN_DB'>"
p343
sg102
S"<Storage {'body': <cStringIO.StringO object at 0...da> at 0x07448E70>, 'view': 'default/home.html'}>"
p344
sS'THEAD'
p345
S"<class 'gluon.html.THEAD'>"
p346
sS'ANY_OF'
p347
S"<class 'gluon.validators.ANY_OF'>"
p348
sS'IS_NULL_OR'
p349
S"<class 'gluon.validators.IS_EMPTY_OR'>"
p350
sS'url'
p351
S"'http://127.0.0.1:8000/app1/default/user/login'"
p352
sS'IS_FLOAT_IN_RANGE'
p353
S"<class 'gluon.validators.IS_FLOAT_IN_RANGE'>"
p354
sS'IS_EXPR'
p355
S"<class 'gluon.validators.IS_EXPR'>"
p356
sS'RPXAccount'
p357
S"<class 'gluon.contrib.login_methods.rpx_account.RPXAccount'>"
p358
sS'IS_IN_SET'
p359
S"<class 'gluon.validators.IS_IN_SET'>"
p360
sS'IS_UPLOAD_FILENAME'
p361
S"<class 'gluon.validators.IS_UPLOAD_FILENAME'>"
p362
sS'IS_DECIMAL_IN_RANGE'
p363
S"<class 'gluon.validators.IS_DECIMAL_IN_RANGE'>"
p364
sS'TT'
p365
S"<class 'gluon.html.TT'>"
p366
sS'T'
S'<gluon.languages.translator object>'
p367
sssS'traceback'
p368
S'Traceback (most recent call last):\n  File "gluon/restricted.py", line 224, in restricted\n  File "K:\\web2py_win\\web2py\\applications\\app1\\models\\db1.py", line 6, in <module>\n    Field(\'created_datetime\', \'datetime\', default=now),\nNameError: name \'now\' is not defined\n'
p369
s.