(dp1
S'output'
p2
S"<type 'exceptions.SyntaxError'> Set: no tables selected"
p3
sS'layer'
p4
S'C:\\Users\\lenovo\\Downloads\\Compressed\\web2py\\applications\\app1\\controllers/default.py'
p5
sS'code'
p6
S'# -*- coding: utf-8 -*-\n# this file is released under public domain and you can use without limitations\n\n#########################################################################\n## This is a sample controller\n## - index is the default action of any application\n## - user is required for authentication and authorization\n## - download is for downloading files uploaded in the db (does streaming)\n## - api is an example of Hypermedia API support and access control\n#########################################################################\ndef home():\n    response.flash = "welcome to incredible varanasi"\n    #mail.send(to=[\'mehuljain811@gmail.com\'],\n          #subject=\'hello\',\n          # If reply_to is omitted, then mail.settings.sender is used\n          #reply_to=\'mehuljain811@gmail.com\',\n          #message=\'hi there\')\n\n    response.files.append(URL(\'static\', \'css/background.css\'))\n    response.files.append(URL(\'static\', \'css/grid.css\'))\n    return locals()\n\n@auth.requires_login()\ndef bank():\n    #hrei_rows = db(db.places.place_type=="heritage").select(orderby = ~db.places.rating)\n    form = SQLFORM.factory(Field(\'Current Location\', requires=IS_IN_DB(db, \'places.place_name\', \'%(place_name)s\')))\n    check_form = form.process()\n    if check_form.accepted:\n        t=form.components[0]\n        bank_rows = db(db.place_distance.place2==t).select(db.place_distance.place1,db.place_distance.distance,orderby = db.place_distance.distance)\n        #hrei_near_rows = db.executesql(\'select place1,distance from place_distance where place2=selected_place order by distance\')\n    else:\n        bank_rows = db.executesql(\'select place_name,rating,Place_ID from places where place_type="bank" order by rating desc\')\n    return locals()\n\n@auth.requires_login()\ndef bank_place():\n    response.files.append(URL(\'static\', \'css/background_bank.css\'))\n    response.files.append(URL(\'static\', \'css/box_bank.css\'))\n    response.files.append(URL(\'static\', \'css/box_bank_contact.css\'))\n    postals = db(db.bank.ID_BK==request.args[0]).select()\n    phones = db(db.bank_2.ID_BK_2==request.args[0]).select(db.bank_2.Phone_BK)\n    db.visit_places.Place_ID.default = request.args[0]\n    db.visit_places.Place_ID.readable = False\n    db.visit_places.Place_ID.writable = False\n\n    db.visit_places.RU_ID_Place.readable = False\n    db.visit_places.RU_ID_Place.writable = False\n\n    form = SQLFORM(db.visit_places).process()\n    comments = db(db.visit_places.Place_ID==request.args[0]).select()\n\n    db.visit_places.RU_ID_Place.default = db.visit_places.created_by\n    if form.accepted:\n        if len(comments)!=0:\n            sume=0\n            for commente in comments:\n                sume+= (commente.User_Rating_Place)\n                db(db.bank.ID_BK==request.args[0]).update(Rating_BK=sume/len(comments))\n                db(db.places.Place_ID==request.args[0]).update(rating=sume/len(comments))\n    return locals()\n\n\n@auth.requires_login()\ndef entertainment():\n    #hrei_rows = db(db.places.place_type=="heritage").select(orderby = ~db.places.rating)\n    form = SQLFORM.factory(Field(\'Current_Location\', requires=IS_IN_DB(db, \'places.place_name\', \'%(place_name)s\')))\n    check_form = form.process()\n    t=1\n    t1=[]\n    t3=[]\n    if check_form.accepted:\n        t=form.vars.Current_Location\n        t1=db(db.places.place_name==t).select(db.places.Place_ID)\n        for t2 in t1:\n            enter_rows = db(db.place_distance.place2==t2.Place_ID).select(db.place_distance.place1,orderby = db.place_distance.distance)\n        for r in enter_rows:\n            x = db(db.places.Place_ID==r.place1 and db.places.place_type=="entertainment").select(distinct=True)\n            t3.append(x)\n\n        y = db(x).select(distinct=True)\n        #rows =  db(db.places).select(join=enter_rows(db.places.Place_ID==enter_rows))\n        #hrei_near_rows = db.executesql(\'select place1,distance from place_distance where place2=selected_place order by distance\')\n    else:\n        enter_rows = db.executesql(\'select place_name,rating,Place_ID from places where place_type="entertainment" order by rating desc\')\n    return locals()\n\n@auth.requires_login()\ndef enter_place():\n    response.files.append(URL(\'static\', \'css/background_entertainment.css\'))\n    response.files.append(URL(\'static\', \'css/box_entertainment.css\'))\n    postals = db(db.entertainment_hub.ID_EH==request.args[0]).select()\n    db.visit_places.Place_ID.default = request.args[0]\n    db.visit_places.Place_ID.readable = False\n    db.visit_places.Place_ID.writable = False\n    db.visit_places.RU_ID_Place.readable = False\n    db.visit_places.RU_ID_Place.writable = False\n\n    form = SQLFORM(db.visit_places).process()\n    comments = db(db.visit_places.Place_ID==request.args[0]).select()\n    db.visit_places.RU_ID_Place.default = db.visit_places.created_by\n    if form.accepted:\n        if len(comments)!=0:\n            sume=0\n            for commente in comments:\n                sume+= (commente.User_Rating_Place)\n                db(db.entertainment_hub.ID_EH==request.args[0]).update(Rating_EH=sume/len(comments))\n                db(db.places.Place_ID==request.args[0]).update(rating=sume/len(comments))\n    return locals()\n\n\n@auth.requires_login()\ndef fuel_agency():\n    #hrei_rows = db(db.places.place_type=="heritage").select(orderby = ~db.places.rating)\n    form = SQLFORM.factory(Field(\'Current Location\', requires=IS_IN_DB(db, \'places.place_name\', \'%(place_name)s\')))\n    check_form = form.process()\n    if check_form.accepted:\n        t=form.components[0]\n        fag_rows = db(db.place_distance.place2==t).select(db.place_distance.place1,db.place_distance.distance,orderby = db.place_distance.distance)\n        #hrei_near_rows = db.executesql(\'select place1,distance from place_distance where place2=selected_place order by distance\')\n    else:\n        fag_rows = db.executesql(\'select place_name,rating,Place_ID from places where place_type="fuel agency" order by rating desc\')\n    return locals()\n\n@auth.requires_login()\ndef fuelagency_place():\n    response.files.append(URL(\'static\', \'css/background_fuelagency.css\'))\n    response.files.append(URL(\'static\', \'css/box_fuel.css\'))\n    postals = db(db.fuel_agency.ID_FA==request.args[0]).select()\n    x = db.fuel_agency(db.fuel_agency.ID_FA==request.args[0])\n    affils = db(db.fuel_company.ID_FC==x.ID_FC_R).select()\n    phones = db(db.fuel_agency_2.ID_FA_2==request.args[0]).select(db.fuel_agency_2.Phone_FA,distinct=True)\n    db.visit_places.Place_ID.default = request.args[0]\n    db.visit_places.Place_ID.readable = False\n    db.visit_places.Place_ID.writable = False\n    db.visit_places.RU_ID_Place.readable = False\n    db.visit_places.RU_ID_Place.writable = False\n    form = SQLFORM(db.visit_places).process()\n    comments = db(db.visit_places.Place_ID==request.args[0]).select()\n\n    db.visit_places.RU_ID_Place.default = db.visit_places.created_by\n    if form.accepted:\n        if len(comments)!=0:\n            sume=0\n            for commente in comments:\n                sume+= (commente.User_Rating_Place)\n                db(db.fuel_agency.ID_FA==request.args[0]).update(Rating_FA=sume/len(comments))\n                db(db.places.Place_ID==request.args[0]).update(rating=sume/len(comments))\n    return locals()\n\n\n\n@auth.requires_login()\ndef fuel_company():\n    #hrei_rows = db(db.places.place_type=="heritage").select(orderby = ~db.places.rating)\n    form = SQLFORM.factory(Field(\'Current Location\', requires=IS_IN_DB(db, \'places.place_name\', \'%(place_name)s\')))\n    check_form = form.process()\n    if check_form.accepted:\n        t=form.components[0]\n        fc_rows = db(db.place_distance.place2==t).select(db.place_distance.place1,db.place_distance.distance,orderby = db.place_distance.distance)\n        #hrei_near_rows = db.executesql(\'select place1,distance from place_distance where place2=selected_place order by distance\')\n    else:\n        fc_rows = db.executesql(\'select place_name,rating,Place_ID from places where place_type="fuel company" order by rating desc\')\n    return locals()\n\n\n@auth.requires_login()\ndef fuelcompany_place():\n    response.files.append(URL(\'static\', \'css/background_fuelcompany.css\'))\n    response.files.append(URL(\'static\', \'css/box_fuel.css\'))\n    postals = db(db.fuel_company.ID_FC==request.args[0]).select()\n    \n    db.visit_places.Place_ID.default = request.args[0]\n    db.visit_places.Place_ID.readable = False\n    db.visit_places.Place_ID.writable = False\n\n    db.visit_places.RU_ID_Place.readable = False\n    db.visit_places.RU_ID_Place.writable = False\n\n    form = SQLFORM(db.visit_places).process()\n    comments = db(db.visit_places.Place_ID==request.args[0]).select()\n\n    db.visit_places.RU_ID_Place.default = db.visit_places.created_by\n    return locals()\n\n@auth.requires_login()\ndef handloom():\n    #hrei_rows = db(db.places.place_type=="heritage").select(orderby = ~db.places.rating)\n    form = SQLFORM.factory(Field(\'Current Location\', requires=IS_IN_DB(db, \'places.place_name\', \'%(place_name)s\')))\n    check_form = form.process()\n    if check_form.accepted:\n        t=form.components[0]\n        hand_rows = db(db.place_distance.place2==t).select(db.place_distance.place1,db.place_distance.distance,orderby = db.place_distance.distance)\n        #hrei_near_rows = db.executesql(\'select place1,distance from place_distance where place2=selected_place order by distance\')\n    else:\n        hand_rows = db.executesql(\'select place_name,rating,Place_ID from places where place_type="handloom" order by rating desc\')\n    return locals()\n\n@auth.requires_login()\ndef handloom_place():\n    response.files.append(URL(\'static\', \'css/background_handloom.css\'))\n    response.files.append(URL(\'static\', \'css/box_handloom.css\'))\n    postals = db(db.local_handlooms.ID_LH==request.args[0]).select()\n    phones = db(db.local_handlooms_2.ID_LH_2==request.args[0]).select(db.local_handlooms_2.Phone_LH)\n    db.visit_places.Place_ID.default = request.args[0]\n    db.visit_places.Place_ID.readable = False\n    db.visit_places.Place_ID.writable = False\n\n    db.visit_places.RU_ID_Place.readable = False\n    db.visit_places.RU_ID_Place.writable = False\n\n    form = SQLFORM(db.visit_places).process()\n    comments = db(db.visit_places.Place_ID==request.args[0]).select()\n\n    db.visit_places.RU_ID_Place.default = db.visit_places.created_by\n    if form.accepted:\n        if len(comments)!=0:\n            sume=0\n            for commente in comments:\n                sume+= (commente.User_Rating_Place)\n                db(db.local_handlooms.ID_LH==request.args[0]).update(Rating_LH=sume/len(comments))\n                db(db.places.Place_ID==request.args[0]).update(rating=sume/len(comments))\n    return locals()\n\n\n\n\n@auth.requires_login()\ndef heritage():\n    #hrei_rows = db(db.places.place_type=="heritage").select(orderby = ~db.places.rating)\n    form = SQLFORM.factory(Field(\'Current Location\', requires=IS_IN_DB(db, \'places.place_name\', \'%(place_name)s\')))\n    check_form = form.process()\n    if check_form.accepted:\n        t=form.components[0]\n        hrei_rows = db(db.place_distance.place2==t).select(db.place_distance.place1,db.place_distance.distance,orderby = db.place_distance.distance)\n        #hrei_near_rows = db.executesql(\'select place1,distance from place_distance where place2=selected_place order by distance\')\n    else:\n        hrei_rows = db.executesql(\'select Place_Name as place1,rating,Place_ID from places where Place_Type="heritage" order by rating desc\')\n    return locals()\n\n@auth.requires_login()\ndef heri_place():\n    response.files.append(URL(\'static\', \'css/background_heritage.css\'))\n    response.files.append(URL(\'static\', \'css/box_heritage.css\'))\n    #postal = db.heritage_areas(request.args)\n    #posts = db.executesql(\'select * from heritage_areas where ID_HA="ha1"\')\n    postals = db(db.heritage_areas.ID_HA==request.args[0]).select()\n    db.visit_places.Place_ID.default = request.args[0]\n    db.visit_places.Place_ID.readable = False\n    db.visit_places.Place_ID.writable = False\n\n    db.visit_places.RU_ID_Place.readable = False\n    db.visit_places.RU_ID_Place.writable = False\n\n    form = SQLFORM(db.visit_places).process()\n    comments = db(db.visit_places.Place_ID==request.args[0]).select()\n\n    db.visit_places.RU_ID_Place.default = db.visit_places.created_by\n    if form.accepted:\n        if len(comments)!=0:\n            sume=0\n            for commente in comments:\n                sume+= (commente.User_Rating_Place)\n                db(db.heritage_areas.ID_HA==request.args[0]).update(Rating_HA=sume/len(comments))\n                db(db.places.Place_ID==request.args[0]).update(rating=sume/len(comments))\n    return locals()\n\n\n\n\n\n@auth.requires_login()\ndef hotel():\n    #hrei_rows = db(db.places.place_type=="heritage").select(orderby = ~db.places.rating)\n    form = SQLFORM.factory(Field(\'Current Location\', requires=IS_IN_DB(db, \'places.place_name\', \'%(place_name)s\')))\n    check_form = form.process()\n    if check_form.accepted:\n        t=form.components[0]\n        hotel_rows = db(db.place_distance.place2==t).select(db.place_distance.place1,db.place_distance.distance,orderby = db.place_distance.distance)\n        #hrei_near_rows = db.executesql(\'select place1,distance from place_distance where place2=selected_place order by distance\')\n    else:\n        hotel_rows = db.executesql(\'select place_name,rating,Place_ID from places where place_type="hotel" order by rating desc\')\n    return locals()\n\n@auth.requires_login()\ndef hotel_place():\n    response.files.append(URL(\'static\', \'css/background_hotel.css\'))\n    response.files.append(URL(\'static\', \'css/box_entertainment.css\'))\n    postals = db(db.hotels.ID_HT==request.args[0]).select()\n    phones = db(db.hotels_2.ID_HT_2==request.args[0]).select(db.hotels_2.Phone_HT)\n    db.visit_places.Place_ID.default = request.args[0]\n    db.visit_places.Place_ID.readable = False\n    db.visit_places.Place_ID.writable = False\n\n    db.visit_places.RU_ID_Place.readable = False\n    db.visit_places.RU_ID_Place.writable = False\n\n    form = SQLFORM(db.visit_places).process()\n    comments = db(db.visit_places.Place_ID==request.args[0]).select()\n\n    db.visit_places.RU_ID_Place.default = db.visit_places.created_by\n    if form.accepted:\n        if len(comments)!=0:\n            sume=0\n            for commente in comments:\n                sume+= (commente.User_Rating_Place)\n                db(db.hotels.ID_HT==request.args[0]).update(Rating_HT=sume/len(comments))\n                db(db.places.Place_ID==request.args[0]).update(rating=sume/len(comments))\n    return locals()\n\n\n@auth.requires_login()\ndef recreation():\n    #hrei_rows = db(db.places.place_type=="heritage").select(orderby = ~db.places.rating)\n    form = SQLFORM.factory(Field(\'Current Location\', requires=IS_IN_DB(db, \'places.place_name\', \'%(place_name)s\')))\n    check_form = form.process()\n    if check_form.accepted:\n        t=form.components[0]\n        rec_rows = db(db.place_distance.place2==t).select(db.place_distance.place1,db.place_distance.distance,orderby = db.place_distance.distance)\n        #hrei_near_rows = db.executesql(\'select place1,distance from place_distance where place2=selected_place order by distance\')\n    else:\n        rec_rows = db.executesql(\'select place_name,rating,Place_ID from places where place_type="recreation" order by rating desc\')\n    return locals()\n\n@auth.requires_login()\ndef recreat_place():\n    response.files.append(URL(\'static\', \'css/background_recreation.css\'))\n    response.files.append(URL(\'static\', \'css/box_entertainment.css\'))\n    postals = db(db.recreation_hub.ID_RH==request.args[0]).select()\n    \n    db.visit_places.Place_ID.default = request.args[0]\n    db.visit_places.Place_ID.readable = False\n    db.visit_places.Place_ID.writable = False\n\n    db.visit_places.RU_ID_Place.readable = False\n    db.visit_places.RU_ID_Place.writable = False\n\n    form = SQLFORM(db.visit_places).process()\n    comments = db(db.visit_places.Place_ID==request.args[0]).select()\n\n    db.visit_places.RU_ID_Place.default = db.visit_places.created_by\n    if form.accepted:\n        if len(comments)!=0:\n            sume=0\n            for commente in comments:\n                sume+= (commente.User_Rating_Place)\n                db(db.recreation_hub.ID_RH==request.args[0]).update(Rating_RH=sume/len(comments))\n                db(db.places.Place_ID==request.args[0]).update(rating=sume/len(comments))\n    return locals()\n\n\n\n\n@auth.requires_login()\ndef restaurant():\n    #hrei_rows = db(db.places.place_type=="heritage").select(orderby = ~db.places.rating)\n    form = SQLFORM.factory(Field(\'Current Location\', requires=IS_IN_DB(db, \'places.place_name\', \'%(place_name)s\')))\n    check_form = form.process()\n    if check_form.accepted:\n        t=form.components[0]\n        restaur_rows = db(db.place_distance.place2==t).select(db.place_distance.place1,db.place_distance.distance,orderby = db.place_distance.distance)\n        #hrei_near_rows = db.executesql(\'select place1,distance from place_distance where place2=selected_place order by distance\')\n    else:\n        restaur_rows = db.executesql(\'select place_name,rating,Place_ID from places where place_type="restaurant" order by rating desc\')\n    return locals()\n\n@auth.requires_login()\ndef restaur_place():\n    response.files.append(URL(\'static\', \'css/background_restaurant.css\'))\n    response.files.append(URL(\'static\', \'css/box_fuel.css\'))\n    postals = db(db.restaurant.ID_RS==request.args[0]).select()\n    phones = db(db.restaurant_2.ID_RS_2==request.args[0]).select(db.restaurant_2.Phone_RS)\n    db.visit_places.Place_ID.default = request.args[0]\n    db.visit_places.Place_ID.readable = False\n    db.visit_places.Place_ID.writable = False\n\n    db.visit_places.RU_ID_Place.readable = False\n    db.visit_places.RU_ID_Place.writable = False\n\n    form = SQLFORM(db.visit_places).process()\n    comments = db(db.visit_places.Place_ID==request.args[0]).select()\n\n    db.visit_places.RU_ID_Place.default = db.visit_places.created_by\n    if form.accepted:\n        if len(comments)!=0:\n            sume=0\n            for commente in comments:\n                sume+= (commente.User_Rating_Place)\n                db(db.restaurant.ID_RS==request.args[0]).update(Rating_RS=sume/len(comments))\n                db(db.places.Place_ID==request.args[0]).update(rating=sume/len(comments))\n    return locals()\n\n\n@auth.requires_login()\ndef spiritual():\n    #hrei_rows = db(db.places.place_type=="heritage").select(orderby = ~db.places.rating)\n    form = SQLFORM.factory(Field(\'Current Location\', requires=IS_IN_DB(db, \'places.place_name\', \'%(place_name)s\')))\n    check_form = form.process()\n    if check_form.accepted:\n        t=form.components[0]\n        spirit_rows = db(db.place_distance.place2==t).select(db.place_distance.place1,db.place_distance.distance,orderby = db.place_distance.distance)\n        #hrei_near_rows = db.executesql(\'select place1,distance from place_distance where place2=selected_place order by distance\')\n    else:\n        spirit_rows = db.executesql(\'select place_name,rating,Place_ID from places where place_type="spiritual" order by rating desc\')\n    return locals()\n\n@auth.requires_login()\ndef spirit_place():\n    response.files.append(URL(\'static\', \'css/background_spiritual.css\'))\n    response.files.append(URL(\'static\', \'css/box_spiritual.css\'))\n    postals = db(db.spiritual_hub.ID_SH==request.args[0]).select()\n    \n    db.visit_places.Place_ID.default = request.args[0]\n    db.visit_places.Place_ID.readable = False\n    db.visit_places.Place_ID.writable = False\n\n    db.visit_places.RU_ID_Place.readable = False\n    db.visit_places.RU_ID_Place.writable = False\n\n    form = SQLFORM(db.visit_places).process()\n    comments = db(db.visit_places.Place_ID==request.args[0]).select()\n\n    db.visit_places.RU_ID_Place.default = db.visit_places.created_by\n    if form.accepted:\n        if len(comments)!=0:\n            sume=0\n            for commente in comments:\n                sume+= (commente.User_Rating_Place)\n                db(db.spiritual_hub.ID_SH==request.args[0]).update(Rating_SH=sume/len(comments))\n                db(db.places.Place_ID==request.args[0]).update(rating=sume/len(comments))\n    return locals()\n\n\n@auth.requires_login()\ndef taxi_service():\n    #hrei_rows = db(db.places.place_type=="heritage").select(orderby = ~db.places.rating)\n    form = SQLFORM.factory(Field(\'Current Location\', requires=IS_IN_DB(db, \'places.place_name\', \'%(place_name)s\')))\n    check_form = form.process()\n    if check_form.accepted:\n        t=form.components[0]\n        taxi_rows = db(db.place_distance.place2==t).select(db.place_distance.place1,db.place_distance.distance,orderby = db.place_distance.distance)\n        #hrei_near_rows = db.executesql(\'select place1,distance from place_distance where place2=selected_place order by distance\')\n    else:\n        taxi_rows = db.executesql(\'select place_name,rating,Place_ID from places where place_type="taxi service" order by rating desc\')\n    return locals()\n\n@auth.requires_login()\ndef taxi_place():\n    response.files.append(URL(\'static\', \'css/background_taxiservice.css\'))\n    response.files.append(URL(\'static\', \'css/box_taxiservice.css\'))\n    postals = db(db.taxi_service.ID_TS==request.args[0]).select()\n    phones = db(db.taxi_service_2.ID_TS_2==request.args[0]).select(db.taxi_service_2.Phone_TS,distinct=True)\n    carprices = db(db.taxi_service_2.ID_TS_2==request.args[0]).select(db.taxi_service_2.Car_Price_TS,distinct=True)\n    cartypes = db(db.taxi_service_2.ID_TS_2==request.args[0]).select(db.taxi_service_2.Car_Types_TS,distinct=True)\n    db.visit_places.Place_ID.default = request.args[0]\n    db.visit_places.Place_ID.readable = False\n    db.visit_places.Place_ID.writable = False\n\n    db.visit_places.RU_ID_Place.readable = False\n    db.visit_places.RU_ID_Place.writable = False\n\n    form = SQLFORM(db.visit_places).process()\n    comments = db(db.visit_places.Place_ID==request.args[0]).select()\n\n    db.visit_places.RU_ID_Place.default = db.visit_places.created_by\n    if form.accepted:\n        if len(comments)!=0:\n            sume=0\n            for commente in comments:\n                sume+= (commente.User_Rating_Place)\n                db(db.taxi_service.ID_TS==request.args[0]).update(Rating_TS=sume/len(comments))\n                db(db.places.Place_ID==request.args[0]).update(rating=sume/len(comments))\n    return locals()\n\n@auth.requires_login()\ndef travel_agency():\n    #hrei_rows = db(db.places.place_type=="heritage").select(orderby = ~db.places.rating)\n    form = SQLFORM.factory(Field(\'Current Location\', requires=IS_IN_DB(db, \'places.place_name\', \'%(place_name)s\')))\n    check_form = form.process()\n    if check_form.accepted:\n        t=form.components[0]\n        travel_rows = db(db.place_distance.place2==t).select(db.place_distance.place1,db.place_distance.distance,orderby = db.place_distance.distance)\n        #hrei_near_rows = db.executesql(\'select place1,distance from place_distance where place2=selected_place order by distance\')\n    else:\n        travel_rows = db.executesql(\'select place_name,rating,Place_ID from places where place_type="travel agency" order by rating desc\')\n    return locals()\n\n@auth.requires_login()\ndef travel_place():\n    response.files.append(URL(\'static\', \'css/background_travelagency.css\'))\n    response.files.append(URL(\'static\', \'css/box_fuel.css\'))\n    postals = db(db.travel_agency.ID_TA==request.args[0]).select()\n    phones = db(db.Travel_Agency_2.ID_TA_2==request.args[0]).select(db.Travel_Agency_2.Phone_TA)\n    tour_package = db(db.Travel_Agency_2.ID_TA_2==request.args[0]).select(db.Travel_Agency_2.Tour_Package_TA)\n    db.visit_places.Place_ID.default = request.args[0]\n    db.visit_places.Place_ID.readable = False\n    db.visit_places.Place_ID.writable = False\n\n    db.visit_places.RU_ID_Place.readable = False\n    db.visit_places.RU_ID_Place.writable = False\n\n    form = SQLFORM(db.visit_places).process()\n    comments = db(db.visit_places.Place_ID==request.args[0]).select()\n\n    db.visit_places.RU_ID_Place.default = db.visit_places.created_by\n    if form.accepted:\n        if len(comments)!=0:\n            sume=0\n            for commente in comments:\n                sume+= (commente.User_Rating_Place)\n                db(db.travel_agency.ID_TA==request.args[0]).update(Rating_TA=sume/len(comments))\n                db(db.places.Place_ID==request.args[0]).update(rating=sume/len(comments))\n    return locals()\n\n\n\n\n\ndef index():\n    """\n    example action using the internationalization operator T and flash\n    rendered by views/default/index.html or views/generic.html\n\n    if you need a simple wiki simply replace the two lines below with:\n    return auth.wiki()\n    """\n    #rows = db(db.blog_post).select()\n    #response.flash = T("Welcome to Incredible Varanasi")\n    redirect(URL(\'home\'))\n    return locals()\n#@auth.requires_login()\n\ndef comment():\n    x = request.args[0]\n    y = request.args[1]\n    postals = db(db.visit_reply.post_id==x).select()\n    db.visit_reply.post_id.default = x\n    db.visit_reply.post_id.readable = False\n    db.visit_reply.post_id.writable = False\n    form = SQLFORM(db.visit_reply).process()\n\n    if form.accepted:\n        postals = db(db.visit_reply.post_id==request.args[0]).select()\n    return locals()\n    \ndef create():\n    \n    return locals()\ndef show():\n    return "Team MADS"\n\ndef user():\n    """\n    exposes:\n    http://..../[app]/default/user/login\n    http://..../[app]/default/user/logout\n    http://..../[app]/default/user/register\n    http://..../[app]/default/user/profile\n    http://..../[app]/default/user/retrieve_password\n    http://..../[app]/default/user/change_password\n    http://..../[app]/default/user/manage_users (requires membership in\n    use @auth.requires_login()\n        @auth.requires_membership(\'group name\')\n        @auth.requires_permission(\'read\',\'table name\',record_id)\n    to decorate functions that need access control\n    """\n    return dict(form=auth())\n\n\n@cache.action()\ndef download():\n    """\n    allows downloading of uploaded files\n    http://..../[app]/default/download/[filename]\n    """\n    return response.download(request, db)\n\n\ndef call():\n    """\n    exposes services. for example:\n    http://..../[app]/default/call/jsonrpc\n    decorate with @services.jsonrpc the functions to expose\n    supports xml, json, xmlrpc, jsonrpc, amfrpc, rss, csv\n    """\n    return service()\n\n\n@auth.requires_login()\ndef api():\n    """\n    this is example of API with access control\n    WEB2PY provides Hypermedia API (Collection+JSON) Experimental\n    """\n    from gluon.contrib.hypermedia import Collection\n    rules = {\n        \'<tablename>\': {\'GET\':{},\'POST\':{},\'PUT\':{},\'DELETE\':{}},\n        }\n    return Collection(db).process(request,response,rules)\n\nresponse._vars=response._caller(entertainment)\n'
p7
sS'snapshot'
p8
(dp9
S'exception'
p10
(dp11
S'__getslice__'
p12
S"<method-wrapper '__getslice__' of exceptions.SyntaxError object>"
p13
sS'text'
p14
S'None'
p15
sS'__str__'
p16
S"<method-wrapper '__str__' of exceptions.SyntaxError object>"
p17
sS'__reduce__'
p18
S'<built-in method __reduce__ of exceptions.SyntaxError object>'
p19
sS'__dict__'
p20
S'{}'
p21
sS'__sizeof__'
p22
S'<built-in method __sizeof__ of exceptions.SyntaxError object>'
p23
sS'__init__'
p24
S"<method-wrapper '__init__' of exceptions.SyntaxError object>"
p25
sS'__setattr__'
p26
S"<method-wrapper '__setattr__' of exceptions.SyntaxError object>"
p27
sS'__reduce_ex__'
p28
S'<built-in method __reduce_ex__ of exceptions.SyntaxError object>'
p29
sS'__new__'
p30
S'<built-in method __new__ of type object>'
p31
sS'__format__'
p32
S'<built-in method __format__ of exceptions.SyntaxError object>'
p33
sS'__class__'
p34
S"<type 'exceptions.SyntaxError'>"
p35
sS'filename'
p36
S'None'
p37
sS'lineno'
p38
S'None'
p39
sS'msg'
p40
S"'Set: no tables selected'"
p41
sS'__doc__'
p42
S"'Invalid syntax.'"
p43
sS'__getitem__'
p44
S"<method-wrapper '__getitem__' of exceptions.SyntaxError object>"
p45
sS'__setstate__'
p46
S'<built-in method __setstate__ of exceptions.SyntaxError object>'
p47
sS'__getattribute__'
p48
S"<method-wrapper '__getattribute__' of exceptions.SyntaxError object>"
p49
sS'print_file_and_line'
p50
S'None'
p51
sS'args'
p52
S"('Set: no tables selected',)"
p53
sS'__subclasshook__'
p54
S'<built-in method __subclasshook__ of type object>'
p55
sS'offset'
p56
S'None'
p57
sS'__unicode__'
p58
S'<built-in method __unicode__ of exceptions.SyntaxError object>'
p59
sS'__delattr__'
p60
S"<method-wrapper '__delattr__' of exceptions.SyntaxError object>"
p61
sS'__repr__'
p62
S"<method-wrapper '__repr__' of exceptions.SyntaxError object>"
p63
sS'__hash__'
p64
S"<method-wrapper '__hash__' of exceptions.SyntaxError object>"
p65
ssS'evalue'
p66
S'Set: no tables selected'
p67
sS'request'
p68
cgluon.html
XML_unpickle
p69
(S's\x04f\x00\x00<div><table><tr><td style="font-weight:bold;vertical-align:top;">ajax</td><td style="vertical-align:top;">:</td><td><div>False</div></td></tr><tr><td style="font-weight:bold;vertical-align:top;">application</td><td style="vertical-align:top;">:</td><td><div>app1</div></td></tr><tr><td style="font-weight:bold;vertical-align:top;">args</td><td style="vertical-align:top;">:</td><td><div><table></table></div></td></tr><tr><td style="font-weight:bold;vertical-align:top;">cid</td><td style="vertical-align:top;">:</td><td><div>None</div></td></tr><tr><td style="font-weight:bold;vertical-align:top;">client</td><td style="vertical-align:top;">:</td><td><div>127.0.0.1</div></td></tr><tr><td style="font-weight:bold;vertical-align:top;">controller</td><td style="vertical-align:top;">:</td><td><div>default</div></td></tr><tr><td style="font-weight:bold;vertical-align:top;">cookies</td><td style="vertical-align:top;">:</td><td><div><table><tr><td style="font-weight:bold;vertical-align:top;">session_id_admin</td><td style="vertical-align:top;">:</td><td><div>127.0.0.1-ea565317-fed2-4481-85a9-bec2a7f1c159<table><tr><td style="font-weight:bold;vertical-align:top;">comment</td><td style="vertical-align:top;">:</td><td><div></div></td></tr><tr><td style="font-weight:bold;vertical-align:top;">domain</td><td style="vertical-align:top;">:</td><td><div></div></td></tr><tr><td style="font-weight:bold;vertical-align:top;">expires</td><td style="vertical-align:top;">:</td><td><div></div></td></tr><tr><td style="font-weight:bold;vertical-align:top;">httponly</td><td style="vertical-align:top;">:</td><td><div></div></td></tr><tr><td style="font-weight:bold;vertical-align:top;">max-age</td><td style="vertical-align:top;">:</td><td><div></div></td></tr><tr><td style="font-weight:bold;vertical-align:top;">path</td><td style="vertical-align:top;">:</td><td><div></div></td></tr><tr><td style="font-weight:bold;vertical-align:top;">secure</td><td style="vertical-align:top;">:</td><td><div></div></td></tr><tr><td style="font-weight:bold;vertical-align:top;">version</td><td style="vertical-align:top;">:</td><td><div></div></td></tr></table></div></td></tr><tr><td style="font-weight:bold;vertical-align:top;">session_id_app1</td><td style="vertical-align:top;">:</td><td><div>127.0.0.1-8ffeabfb-5122-48cf-811a-eeb1b12331fb<table><tr><td style="font-weight:bold;vertical-align:top;">comment</td><td style="vertical-align:top;">:</td><td><div></div></td></tr><tr><td style="font-weight:bold;vertical-align:top;">domain</td><td style="vertical-align:top;">:</td><td><div></div></td></tr><tr><td style="font-weight:bold;vertical-align:top;">expires</td><td style="vertical-align:top;">:</td><td><div></div></td></tr><tr><td style="font-weight:bold;vertical-align:top;">httponly</td><td style="vertical-align:top;">:</td><td><div></div></td></tr><tr><td style="font-weight:bold;vertical-align:top;">max-age</td><td style="vertical-align:top;">:</td><td><div></div></td></tr><tr><td style="font-weight:bold;vertical-align:top;">path</td><td style="vertical-align:top;">:</td><td><div></div></td></tr><tr><td style="font-weight:bold;vertical-align:top;">secure</td><td style="vertical-align:top;">:</td><td><div></div></td></tr><tr><td style="font-weight:bold;vertical-align:top;">version</td><td style="vertical-align:top;">:</td><td><div></div></td></tr></table></div></td></tr><tr><td style="font-weight:bold;vertical-align:top;">session_id_welcome</td><td style="vertical-align:top;">:</td><td><div>127.0.0.1-a652a45e-c11d-4597-9865-267e9d70110e<table><tr><td style="font-weight:bold;vertical-align:top;">comment</td><td style="vertical-align:top;">:</td><td><div></div></td></tr><tr><td style="font-weight:bold;vertical-align:top;">domain</td><td style="vertical-align:top;">:</td><td><div></div></td></tr><tr><td style="font-weight:bold;vertical-align:top;">expires</td><td style="vertical-align:top;">:</td><td><div></div></td></tr><tr><td style="font-weight:bold;vertical-align:top;">httponly</td><td style="vertical-align:top;">:</td><td><div></div></td></tr><tr><td style="font-weight:bold;vertical-align:top;">max-age</td><td style="vertical-align:top;">:</td><td><div></div></td></tr><tr><td style="font-weight:bold;vertical-align:top;">path</td><td style="vertical-align:top;">:</td><td><div></div></td></tr><tr><td style="font-weight:bold;vertical-align:top;">secure</td><td style="vertical-align:top;">:</td><td><div></div></td></tr><tr><td style="font-weight:bold;vertical-align:top;">version</td><td style="vertical-align:top;">:</td><td><div></div></td></tr></table></div></td></tr></table></div></td></tr><tr><td style="font-weight:bold;vertical-align:top;">env</td><td style="vertical-align:top;">:</td><td><div><table><tr><td style="font-weight:bold;vertical-align:top;">CONTENT_LENGTH</td><td style="vertical-align:top;">:</td><td><div>398</div></td></tr><tr><td style="font-weight:bold;vertical-align:top;">CONTENT_TYPE</td><td style="vertical-align:top;">:</td><td><div>multipart/form-data; boundary=----WebKitFormBoundaryzzX4fIT13JFB8pIw</div></td></tr><tr><td style="font-weight:bold;vertical-align:top;">HTTP_ACCEPT</td><td style="vertical-align:top;">:</td><td><div>text/html,application/xhtml+xml,application/xml;q=0.9,image/webp,*/*;q=0.8</div></td></tr><tr><td style="font-weight:bold;vertical-align:top;">HTTP_ACCEPT_ENCODING</td><td style="vertical-align:top;">:</td><td><div>gzip,deflate</div></td></tr><tr><td style="font-weight:bold;vertical-align:top;">HTTP_ACCEPT_LANGUAGE</td><td style="vertical-align:top;">:</td><td><div>en-US,en;q=0.8</div></td></tr><tr><td style="font-weight:bold;vertical-align:top;">HTTP_CACHE_CONTROL</td><td style="vertical-align:top;">:</td><td><div>max-age=0</div></td></tr><tr><td style="font-weight:bold;vertical-align:top;">HTTP_CONNECTION</td><td style="vertical-align:top;">:</td><td><div>keep-alive</div></td></tr><tr><td style="font-weight:bold;vertical-align:top;">HTTP_CONTENT_LENGTH</td><td style="vertical-align:top;">:</td><td><div>398</div></td></tr><tr><td style="font-weight:bold;vertical-align:top;">HTTP_CONTENT_TYPE</td><td style="vertical-align:top;">:</td><td><div>multipart/form-data; boundary=----WebKitFormBoundaryzzX4fIT13JFB8pIw</div></td></tr><tr><td style="font-weight:bold;vertical-align:top;">HTTP_COOKIE</td><td style="vertical-align:top;">:</td><td><div>__utma=96992031.1615220688.1414529826.1414529826.1414529826.1; __utmz=96992031.1414529826.1.1.utmcsr=(direct)|utmccn=(direct)|utmcmd=(none); session_id_welcome=127.0.0.1-a652a45e-c11d-4597-9865-267e9d70110e; session_id_admin=127.0.0.1-ea565317-fed2-4481-85a9-bec2a7f1c159; session_id_app1=127.0.0.1-8ffeabfb-5122-48cf-811a-eeb1b12331fb</div></td></tr><tr><td style="font-weight:bold;vertical-align:top;">HTTP_HOST</td><td style="vertical-align:top;">:</td><td><div>127.0.0.1:8000</div></td></tr><tr><td style="font-weight:bold;vertical-align:top;">HTTP_ORIGIN</td><td style="vertical-align:top;">:</td><td><div>http://127.0.0.1:8000</div></td></tr><tr><td style="font-weight:bold;vertical-align:top;">HTTP_REFERER</td><td style="vertical-align:top;">:</td><td><div>http://127.0.0.1:8000/app1/default/entertainment</div></td></tr><tr><td style="font-weight:bold;vertical-align:top;">HTTP_USER_AGENT</td><td style="vertical-align:top;">:</td><td><div>Mozilla/5.0 (Windows NT 6.3; WOW64) AppleWebKit/537.36 (KHTML, like Gecko) Chrome/38.0.2125.111 Safari/537.36</div></td></tr><tr><td style="font-weight:bold;vertical-align:top;">PATH_INFO</td><td style="vertical-align:top;">:</td><td><div>/app1/default/entertainment</div></td></tr><tr><td style="font-weight:bold;vertical-align:top;">QUERY_STRING</td><td style="vertical-align:top;">:</td><td><div></div></td></tr><tr><td style="font-weight:bold;vertical-align:top;">REMOTE_ADDR</td><td style="vertical-align:top;">:</td><td><div>127.0.0.1</div></td></tr><tr><td style="font-weight:bold;vertical-align:top;">REMOTE_PORT</td><td style="vertical-align:top;">:</td><td><div>59828</div></td></tr><tr><td style="font-weight:bold;vertical-align:top;">REQUEST_METHOD</td><td style="vertical-align:top;">:</td><td><div>POST</div></td></tr><tr><td style="font-weight:bold;vertical-align:top;">SCRIPT_NAME</td><td style="vertical-align:top;">:</td><td><div></div></td></tr><tr><td style="font-weight:bold;vertical-align:top;">SERVER_NAME</td><td style="vertical-align:top;">:</td><td><div>ITSMJTHING</div></td></tr><tr><td style="font-weight:bold;vertical-align:top;">SERVER_PORT</td><td style="vertical-align:top;">:</td><td><div>8000</div></td></tr><tr><td style="font-weight:bold;vertical-align:top;">SERVER_PROTOCOL</td><td style="vertical-align:top;">:</td><td><div>HTTP/1.1</div></td></tr><tr><td style="font-weight:bold;vertical-align:top;">SERVER_SOFTWARE</td><td style="vertical-align:top;">:</td><td><div>Rocket 1.2.6</div></td></tr><tr><td style="font-weight:bold;vertical-align:top;">app_folders</td><td style="vertical-align:top;">:</td><td><div>set([&#x27;C:\\\\Users\\\\lenovo\\\\Downloads\\\\Compressed\\\\web2py\\\\applications\\\\admin\\\\&#x27;, &#x27;C:\\\\Users\\\\lenovo\\\\Downloads\\\\Compressed\\\\web2py\\\\applications\\\\app1\\\\&#x27;, &#x27;C:\\\\Users\\\\lenovo\\\\Downloads\\\\Compressed\\\\web2py\\\\applications\\\\welcome\\\\&#x27;])</div></td></tr><tr><td style="font-weight:bold;vertical-align:top;">applications_parent</td><td style="vertical-align:top;">:</td><td><div>C:\\Users\\lenovo\\Downloads\\Compressed\\web2py</div></td></tr><tr><td style="font-weight:bold;vertical-align:top;">cmd_args</td><td style="vertical-align:top;">:</td><td><div><table></table></div></td></tr><tr><td style="font-weight:bold;vertical-align:top;">cmd_options</td><td style="vertical-align:top;">:</td><td><div>&lt;Values at 0x2ec72b0: {&#x27;verbose&#x27;: False, &#x27;ip&#x27;: &#x27;127.0.0.1&#x27;, &#x27;debuglevel&#x27;: 30, &#x27;with_scheduler&#x27;: False, &#x27;ips&#x27;: [&#x27;10.9.10.201&#x27;, &#x27;fe80::806f:6494:2119:cd7b%4&#x27;], &#x27;shutdown_timeout&#x27;: 5, &#x27;taskbar&#x27;: False, &#x27;with_coverage&#x27;: False, &#x27;scheduler_groups&#x27;: None, &#x27;port&#x27;: 8000, &#x27;maxthreads&#x27;: None, &#x27;softcron&#x27;: False, &#x27;server_name&#x27;: &#x27;ITSMJTHING&#x27;, &#x27;bpython&#x27;: False, &#x27;nogui&#x27;: False, &#x27;pid_filename&#x27;: &#x27;httpserver.pid&#x27;, &#x27;extcron&#x27;: False, &#x27;runcron&#x27;: False, &#x27;run_system_tests&#x27;: False, &#x27;test&#x27;: None, &#x27;folder&#x27;: &#x27;C:\\\\Users\\\\lenovo\\\\Downloads\\\\Compressed\\\\web2py&#x27;, &#x27;config&#x27;: &#x27;&#x27;, &#x27;minthreads&#x27;: None, &#x27;shell&#x27;: None, &#x27;run&#x27;: &#x27;&#x27;, &#x27;log_filename&#x27;: &#x27;httpserver.log&#x27;, &#x27;profiler_dir&#x27;: None, &#x27;args&#x27;: [&#x27;&#x27;], &#x27;socket_timeout&#x27;: 5, &#x27;ssl_ca_certificate&#x27;: None, &#x27;scheduler&#x27;: None, &#x27;interfaces&#x27;: None, &#x27;ssl_private_key&#x27;: &#x27;&#x27;, &#x27;gae&#x27;: None, &#x27;password&#x27;: &#x27;&lt;ask&gt;&#x27;, &#x27;request_queue_size&#x27;: 5, &#x27;ssl_certificate&#x27;: &#x27;&#x27;, &#x27;cronjob&#x27;: False, &#x27;numthreads&#x27;: None, &#x27;quiet&#x27;: False, &#x27;import_models&#x27;: False, &#x27;timeout&#x27;: 10, &#x27;plain&#x27;: False, &#x27;nobanner&#x27;: False}&gt;</div></td></tr><tr><td style="font-weight:bold;vertical-align:top;">content_length</td><td style="vertical-align:top;">:</td><td><div>398</div></td></tr><tr><td style="font-weight:bold;vertical-align:top;">content_type</td><td style="vertical-align:top;">:</td><td><div>multipart/form-data; boundary=----WebKitFormBoundaryzzX4fIT13JFB8pIw</div></td></tr><tr><td style="font-weight:bold;vertical-align:top;">db_sessions</td><td style="vertical-align:top;">:</td><td><div>set([])</div></td></tr><tr><td style="font-weight:bold;vertical-align:top;">debugging</td><td style="vertical-align:top;">:</td><td><div>True</div></td></tr><tr><td style="font-weight:bold;vertical-align:top;">gluon_parent</td><td style="vertical-align:top;">:</td><td><div>C:\\Users\\lenovo\\Downloads\\Compressed\\web2py</div></td></tr><tr><td style="font-weight:bold;vertical-align:top;">http_accept</td><td style="vertical-align:top;">:</td><td><div>text/html,application/xhtml+xml,application/xml;q=0.9,image/webp,*/*;q=0.8</div></td></tr><tr><td style="font-weight:bold;vertical-align:top;">http_accept_encoding</td><td style="vertical-align:top;">:</td><td><div>gzip,deflate</div></td></tr><tr><td style="font-weight:bold;vertical-align:top;">http_accept_language</td><td style="vertical-align:top;">:</td><td><div>en-US,en;q=0.8</div></td></tr><tr><td style="font-weight:bold;vertical-align:top;">http_cache_control</td><td style="vertical-align:top;">:</td><td><div>max-age=0</div></td></tr><tr><td style="font-weight:bold;vertical-align:top;">http_connection</td><td style="vertical-align:top;">:</td><td><div>keep-alive</div></td></tr><tr><td style="font-weight:bold;vertical-align:top;">http_content_length</td><td style="vertical-align:top;">:</td><td><div>398</div></td></tr><tr><td style="font-weight:bold;vertical-align:top;">http_content_type</td><td style="vertical-align:top;">:</td><td><div>multipart/form-data; boundary=----WebKitFormBoundaryzzX4fIT13JFB8pIw</div></td></tr><tr><td style="font-weight:bold;vertical-align:top;">http_cookie</td><td style="vertical-align:top;">:</td><td><div>__utma=96992031.1615220688.1414529826.1414529826.1414529826.1; __utmz=96992031.1414529826.1.1.utmcsr=(direct)|utmccn=(direct)|utmcmd=(none); session_id_welcome=127.0.0.1-a652a45e-c11d-4597-9865-267e9d70110e; session_id_admin=127.0.0.1-ea565317-fed2-4481-85a9-bec2a7f1c159; session_id_app1=127.0.0.1-8ffeabfb-5122-48cf-811a-eeb1b12331fb</div></td></tr><tr><td style="font-weight:bold;vertical-align:top;">http_host</td><td style="vertical-align:top;">:</td><td><div>127.0.0.1:8000</div></td></tr><tr><td style="font-weight:bold;vertical-align:top;">http_origin</td><td style="vertical-align:top;">:</td><td><div>http://127.0.0.1:8000</div></td></tr><tr><td style="font-weight:bold;vertical-align:top;">http_referer</td><td style="vertical-align:top;">:</td><td><div>http://127.0.0.1:8000/app1/default/entertainment</div></td></tr><tr><td style="font-weight:bold;vertical-align:top;">http_user_agent</td><td style="vertical-align:top;">:</td><td><div>Mozilla/5.0 (Windows NT 6.3; WOW64) AppleWebKit/537.36 (KHTML, like Gecko) Chrome/38.0.2125.111 Safari/537.36</div></td></tr><tr><td style="font-weight:bold;vertical-align:top;">is_jython</td><td style="vertical-align:top;">:</td><td><div>False</div></td></tr><tr><td style="font-weight:bold;vertical-align:top;">is_pypy</td><td style="vertical-align:top;">:</td><td><div>False</div></td></tr><tr><td style="font-weight:bold;vertical-align:top;">is_source</td><td style="vertical-align:top;">:</td><td><div>False</div></td></tr><tr><td style="font-weight:bold;vertical-align:top;">local_hosts</td><td style="vertical-align:top;">:</td><td><div><table><tr><td><div>ITSMJTHING</div></td></tr><tr><td><div>10.9.10.201</div></td></tr><tr><td><div>::ffff:127.0.0.1</div></td></tr><tr><td><div>::1</div></td></tr><tr><td><div>fe80::806f:6494:2119:cd7b%4</div></td></tr><tr><td><div>127.0.0.1</div></td></tr></table></div></td></tr><tr><td style="font-weight:bold;vertical-align:top;">path_info</td><td style="vertical-align:top;">:</td><td><div>/app1/default/entertainment</div></td></tr><tr><td style="font-weight:bold;vertical-align:top;">query_string</td><td style="vertical-align:top;">:</td><td><div></div></td></tr><tr><td style="font-weight:bold;vertical-align:top;">remote_addr</td><td style="vertical-align:top;">:</td><td><div>127.0.0.1</div></td></tr><tr><td style="font-weight:bold;vertical-align:top;">remote_port</td><td style="vertical-align:top;">:</td><td><div>59828</div></td></tr><tr><td style="font-weight:bold;vertical-align:top;">request_method</td><td style="vertical-align:top;">:</td><td><div>POST</div></td></tr><tr><td style="font-weight:bold;vertical-align:top;">request_uri</td><td style="vertical-align:top;">:</td><td><div>/app1/default/entertainment</div></td></tr><tr><td style="font-weight:bold;vertical-align:top;">script_name</td><td style="vertical-align:top;">:</td><td><div></div></td></tr><tr><td style="font-weight:bold;vertical-align:top;">server_name</td><td style="vertical-align:top;">:</td><td><div>ITSMJTHING</div></td></tr><tr><td style="font-weight:bold;vertical-align:top;">server_port</td><td style="vertical-align:top;">:</td><td><div>8000</div></td></tr><tr><td style="font-weight:bold;vertical-align:top;">server_protocol</td><td style="vertical-align:top;">:</td><td><div>HTTP/1.1</div></td></tr><tr><td style="font-weight:bold;vertical-align:top;">server_software</td><td style="vertical-align:top;">:</td><td><div>Rocket 1.2.6</div></td></tr><tr><td style="font-weight:bold;vertical-align:top;">web2py_path</td><td style="vertical-align:top;">:</td><td><div>C:\\Users\\lenovo\\Downloads\\Compressed\\web2py</div></td></tr><tr><td style="font-weight:bold;vertical-align:top;">web2py_version</td><td style="vertical-align:top;">:</td><td><div>2.9.11-stable+timestamp.2014.09.15.23.35.11</div></td></tr><tr><td style="font-weight:bold;vertical-align:top;">wsgi.errors</td><td style="vertical-align:top;">:</td><td><div>&lt;open file &#x27;&lt;stderr&gt;&#x27;, mode &#x27;w&#x27; at 0x01C460D0&gt;</div></td></tr><tr><td style="font-weight:bold;vertical-align:top;">wsgi.file_wrapper</td><td style="vertical-align:top;">:</td><td><div>&lt;class wsgiref.util.FileWrapper at 0x01F42B58&gt;</div></td></tr><tr><td style="font-weight:bold;vertical-align:top;">wsgi.input</td><td style="vertical-align:top;">:</td><td><div>&lt;socket._fileobject object at 0x06DC3130&gt;</div></td></tr><tr><td style="font-weight:bold;vertical-align:top;">wsgi.multiprocess</td><td style="vertical-align:top;">:</td><td><div>False</div></td></tr><tr><td style="font-weight:bold;vertical-align:top;">wsgi.multithread</td><td style="vertical-align:top;">:</td><td><div>True</div></td></tr><tr><td style="font-weight:bold;vertical-align:top;">wsgi.run_once</td><td style="vertical-align:top;">:</td><td><div>False</div></td></tr><tr><td style="font-weight:bold;vertical-align:top;">wsgi.url_scheme</td><td style="vertical-align:top;">:</td><td><div>http</div></td></tr><tr><td style="font-weight:bold;vertical-align:top;">wsgi.version</td><td style="vertical-align:top;">:</td><td><div><table><tr><td><div>1</div></td></tr><tr><td><div>0</div></td></tr></table></div></td></tr><tr><td style="font-weight:bold;vertical-align:top;">wsgi_errors</td><td style="vertical-align:top;">:</td><td><div>&lt;open file &#x27;&lt;stderr&gt;&#x27;, mode &#x27;w&#x27; at 0x01C460D0&gt;</div></td></tr><tr><td style="font-weight:bold;vertical-align:top;">wsgi_file_wrapper</td><td style="vertical-align:top;">:</td><td><div>&lt;class wsgiref.util.FileWrapper at 0x01F42B58&gt;</div></td></tr><tr><td style="font-weight:bold;vertical-align:top;">wsgi_input</td><td style="vertical-align:top;">:</td><td><div>&lt;socket._fileobject object at 0x06DC3130&gt;</div></td></tr><tr><td style="font-weight:bold;vertical-align:top;">wsgi_multiprocess</td><td style="vertical-align:top;">:</td><td><div>False</div></td></tr><tr><td style="font-weight:bold;vertical-align:top;">wsgi_multithread</td><td style="vertical-align:top;">:</td><td><div>True</div></td></tr><tr><td style="font-weight:bold;vertical-align:top;">wsgi_run_once</td><td style="vertical-align:top;">:</td><td><div>False</div></td></tr><tr><td style="font-weight:bold;vertical-align:top;">wsgi_url_scheme</td><td style="vertical-align:top;">:</td><td><div>http</div></td></tr><tr><td style="font-weight:bold;vertical-align:top;">wsgi_version</td><td style="vertical-align:top;">:</td><td><div><table><tr><td><div>1</div></td></tr><tr><td><div>0</div></td></tr></table></div></td></tr></table></div></td></tr><tr><td style="font-weight:bold;vertical-align:top;">extension</td><td style="vertical-align:top;">:</td><td><div>html</div></td></tr><tr><td style="font-weight:bold;vertical-align:top;">folder</td><td style="vertical-align:top;">:</td><td><div>C:\\Users\\lenovo\\Downloads\\Compressed\\web2py\\applications\\app1\\</div></td></tr><tr><td style="font-weight:bold;vertical-align:top;">function</td><td style="vertical-align:top;">:</td><td><div>entertainment</div></td></tr><tr><td style="font-weight:bold;vertical-align:top;">global_settings</td><td style="vertical-align:top;">:</td><td><div><table><tr><td style="font-weight:bold;vertical-align:top;">app_folders</td><td style="vertical-align:top;">:</td><td><div>set([&#x27;C:\\\\Users\\\\lenovo\\\\Downloads\\\\Compressed\\\\web2py\\\\applications\\\\admin\\\\&#x27;, &#x27;C:\\\\Users\\\\lenovo\\\\Downloads\\\\Compressed\\\\web2py\\\\applications\\\\app1\\\\&#x27;, &#x27;C:\\\\Users\\\\lenovo\\\\Downloads\\\\Compressed\\\\web2py\\\\applications\\\\welcome\\\\&#x27;])</div></td></tr><tr><td style="font-weight:bold;vertical-align:top;">applications_parent</td><td style="vertical-align:top;">:</td><td><div>C:\\Users\\lenovo\\Downloads\\Compressed\\web2py</div></td></tr><tr><td style="font-weight:bold;vertical-align:top;">cmd_args</td><td style="vertical-align:top;">:</td><td><div><table></table></div></td></tr><tr><td style="font-weight:bold;vertical-align:top;">cmd_options</td><td style="vertical-align:top;">:</td><td><div>&lt;Values at 0x2ec72b0: {&#x27;verbose&#x27;: False, &#x27;ip&#x27;: &#x27;127.0.0.1&#x27;, &#x27;debuglevel&#x27;: 30, &#x27;with_scheduler&#x27;: False, &#x27;ips&#x27;: [&#x27;10.9.10.201&#x27;, &#x27;fe80::806f:6494:2119:cd7b%4&#x27;], &#x27;shutdown_timeout&#x27;: 5, &#x27;taskbar&#x27;: False, &#x27;with_coverage&#x27;: False, &#x27;scheduler_groups&#x27;: None, &#x27;port&#x27;: 8000, &#x27;maxthreads&#x27;: None, &#x27;softcron&#x27;: False, &#x27;server_name&#x27;: &#x27;ITSMJTHING&#x27;, &#x27;bpython&#x27;: False, &#x27;nogui&#x27;: False, &#x27;pid_filename&#x27;: &#x27;httpserver.pid&#x27;, &#x27;extcron&#x27;: False, &#x27;runcron&#x27;: False, &#x27;run_system_tests&#x27;: False, &#x27;test&#x27;: None, &#x27;folder&#x27;: &#x27;C:\\\\Users\\\\lenovo\\\\Downloads\\\\Compressed\\\\web2py&#x27;, &#x27;config&#x27;: &#x27;&#x27;, &#x27;minthreads&#x27;: None, &#x27;shell&#x27;: None, &#x27;run&#x27;: &#x27;&#x27;, &#x27;log_filename&#x27;: &#x27;httpserver.log&#x27;, &#x27;profiler_dir&#x27;: None, &#x27;args&#x27;: [&#x27;&#x27;], &#x27;socket_timeout&#x27;: 5, &#x27;ssl_ca_certificate&#x27;: None, &#x27;scheduler&#x27;: None, &#x27;interfaces&#x27;: None, &#x27;ssl_private_key&#x27;: &#x27;&#x27;, &#x27;gae&#x27;: None, &#x27;password&#x27;: &#x27;&lt;ask&gt;&#x27;, &#x27;request_queue_size&#x27;: 5, &#x27;ssl_certificate&#x27;: &#x27;&#x27;, &#x27;cronjob&#x27;: False, &#x27;numthreads&#x27;: None, &#x27;quiet&#x27;: False, &#x27;import_models&#x27;: False, &#x27;timeout&#x27;: 10, &#x27;plain&#x27;: False, &#x27;nobanner&#x27;: False}&gt;</div></td></tr><tr><td style="font-weight:bold;vertical-align:top;">db_sessions</td><td style="vertical-align:top;">:</td><td><div>set([])</div></td></tr><tr><td style="font-weight:bold;vertical-align:top;">debugging</td><td style="vertical-align:top;">:</td><td><div>True</div></td></tr><tr><td style="font-weight:bold;vertical-align:top;">gluon_parent</td><td style="vertical-align:top;">:</td><td><div>C:\\Users\\lenovo\\Downloads\\Compressed\\web2py</div></td></tr><tr><td style="font-weight:bold;vertical-align:top;">is_jython</td><td style="vertical-align:top;">:</td><td><div>False</div></td></tr><tr><td style="font-weight:bold;vertical-align:top;">is_pypy</td><td style="vertical-align:top;">:</td><td><div>False</div></td></tr><tr><td style="font-weight:bold;vertical-align:top;">is_source</td><td style="vertical-align:top;">:</td><td><div>False</div></td></tr><tr><td style="font-weight:bold;vertical-align:top;">local_hosts</td><td style="vertical-align:top;">:</td><td><div><table><tr><td><div>ITSMJTHING</div></td></tr><tr><td><div>10.9.10.201</div></td></tr><tr><td><div>::ffff:127.0.0.1</div></td></tr><tr><td><div>::1</div></td></tr><tr><td><div>fe80::806f:6494:2119:cd7b%4</div></td></tr><tr><td><div>127.0.0.1</div></td></tr></table></div></td></tr><tr><td style="font-weight:bold;vertical-align:top;">web2py_version</td><td style="vertical-align:top;">:</td><td><div>2.9.11-stable+timestamp.2014.09.15.23.35.11</div></td></tr></table></div></td></tr><tr><td style="font-weight:bold;vertical-align:top;">is_https</td><td style="vertical-align:top;">:</td><td><div>False</div></td></tr><tr><td style="font-weight:bold;vertical-align:top;">is_local</td><td style="vertical-align:top;">:</td><td><div>True</div></td></tr><tr><td style="font-weight:bold;vertical-align:top;">is_restful</td><td style="vertical-align:top;">:</td><td><div>False</div></td></tr><tr><td style="font-weight:bold;vertical-align:top;">is_sheduler</td><td style="vertical-align:top;">:</td><td><div>None</div></td></tr><tr><td style="font-weight:bold;vertical-align:top;">is_shell</td><td style="vertical-align:top;">:</td><td><div>None</div></td></tr><tr><td style="font-weight:bold;vertical-align:top;">now</td><td style="vertical-align:top;">:</td><td><div>datetime.datetime(2014, 11, 8, 1, 26, 12, 42000)</div></td></tr><tr><td style="font-weight:bold;vertical-align:top;">raw_args</td><td style="vertical-align:top;">:</td><td><div></div></td></tr><tr><td style="font-weight:bold;vertical-align:top;">raw_extension</td><td style="vertical-align:top;">:</td><td><div>None</div></td></tr><tr><td style="font-weight:bold;vertical-align:top;">url</td><td style="vertical-align:top;">:</td><td><div>/app1/default/entertainment</div></td></tr><tr><td style="font-weight:bold;vertical-align:top;">utcnow</td><td style="vertical-align:top;">:</td><td><div>datetime.datetime(2014, 11, 7, 19, 56, 12, 42000)</div></td></tr><tr><td style="font-weight:bold;vertical-align:top;">uuid</td><td style="vertical-align:top;">:</td><td><div>app1/127.0.0.1.2014-11-08.01-26-12.e2cda6e9-a334-4c79-aed7-7477419d3fea</div></td></tr><tr><td style="font-weight:bold;vertical-align:top;">wsgi</td><td style="vertical-align:top;">:</td><td><div>&lt;gluon.main.LazyWSGI object at 0x0782C470&gt;</div></td></tr></table></div>'
tRp70
sS'frames'
p71
(lp72
(dp73
S'file'
p74
S'C:\\Users\\lenovo\\Downloads\\Compressed\\web2py\\gluon\\restricted.py'
p75
sS'dump'
p76
(dp77
sS'lnum'
p78
I224
sS'lines'
p79
(dp80
sS'call'
p81
S"(code='# -*- coding: utf-8 -*-\\n# this file is released ...\\n\\nresponse._vars=response._caller(entertainment)\\n', environment={'A': <class 'gluon.html.A'>, 'ANY_OF': <class 'gluon.validators.ANY_OF'>, 'ASSIGNJS': <function ASSIGNJS>, 'Auth': <class 'gluon.tools.Auth'>, 'B': <class 'gluon.html.B'>, 'BEAUTIFY': <class 'gluon.html.BEAUTIFY'>, 'BODY': <class 'gluon.html.BODY'>, 'BR': <class 'gluon.html.BR'>, 'BUTTON': <class 'gluon.html.BUTTON'>, 'CAT': <class 'gluon.html.CAT'>, ...}, layer=r'C:\\Users\\lenovo\\Downloads\\Compressed\\web2py\\applications\\app1\\controllers/default.py')"
p82
sS'func'
p83
S'restricted'
p84
sa(dp85
g74
S'C:\\Users\\lenovo\\Downloads\\Compressed\\web2py\\applications\\app1\\controllers\\default.py'
p86
sg76
(dp87
sg78
I601
sg79
(dp88
I590
S'def api():'
p89
sI591
S'    """'
p90
sI592
S'    this is example of API with access control'
p91
sI593
S'    WEB2PY provides Hypermedia API (Collection+JSON) Experimental'
p92
sI594
S'    """'
p93
sI595
S'    from gluon.contrib.hypermedia import Collection'
p94
sI596
S'    rules = {'
p95
sI597
S"        '<tablename>': {'GET':{},'POST':{},'PUT':{},'DELETE':{}},"
p96
sI598
S'        }'
p97
sI599
S'    return Collection(db).process(request,response,rules)'
p98
ssg81
S'()'
p99
sg83
S'<module>'
p100
sa(dp101
g74
S'C:\\Users\\lenovo\\Downloads\\Compressed\\web2py\\gluon\\globals.py'
p102
sg76
(dp103
sg78
I392
sg79
(dp104
sg81
S'(f=<function entertainment>)'
p105
sg83
S'<lambda>'
p106
sa(dp107
g74
S'C:\\Users\\lenovo\\Downloads\\Compressed\\web2py\\gluon\\tools.py'
p108
sg76
(dp109
sg78
I3439
sg79
(dp110
sg81
S'(*a=(), **b={})'
p111
sg83
S'f'
sa(dp112
g74
S'C:\\Users\\lenovo\\Downloads\\Compressed\\web2py\\applications\\app1\\controllers\\default.py'
p113
sg76
(dp114
S'distinct'
p115
S'undefined'
p116
sS'builtinTrue'
p117
S'True'
p118
sS').select'
p119
g116
sS'global db'
p120
S'<DAL uri="sqlite://storage.sqlite">'
p121
sS'y'
g116
sS'x'
S'<Rows (5)>'
p122
ssg78
I81
sg79
(dp123
I76
S'            enter_rows = db(db.place_distance.place2==t2.Place_ID).select(db.place_distance.place1,orderby = db.place_distance.distance)'
p124
sI77
S'        for r in enter_rows:'
p125
sI78
S'            x = db(db.places.Place_ID==r.place1 and db.places.place_type=="entertainment").select(distinct=True)'
p126
sI79
S'            t3.append(x)'
p127
sI80
S''
sI81
S'        y = db(x).select(distinct=True)'
p128
sI82
S'        #rows =  db(db.places).select(join=enter_rows(db.places.Place_ID==enter_rows))'
p129
sI83
S"        #hrei_near_rows = db.executesql('select place1,distance from place_distance where place2=selected_place order by distance')"
p130
sI84
S'    else:'
p131
sI85
S'        enter_rows = db.executesql(\'select place_name,rating,Place_ID from places where place_type="entertainment" order by rating desc\')'
p132
ssg81
S'()'
p133
sg83
S'entertainment'
p134
sa(dp135
g74
S'C:\\Users\\lenovo\\Downloads\\Compressed\\web2py\\gluon\\dal.py'
p136
sg76
(dp137
sg78
I10749
sg79
(dp138
sg81
S"(self=<Set places.id,places.Place_ID,places.place_name...tertainment\r\n77,EA5,Surya Pool,0,entertainment\r\n>, *fields=[], **attributes={'distinct': True})"
p139
sg83
S'select'
p140
sa(dp141
g74
S'C:\\Users\\lenovo\\Downloads\\Compressed\\web2py\\gluon\\dal.py'
p142
sg76
(dp143
sg78
I2472
sg79
(dp144
sg81
S"(self=<gluon.dal.SQLiteAdapter object>, query=<Rows (5)>, fields=[], attributes={'distinct': True})"
p145
sg83
g140
sa(dp146
g74
S'C:\\Users\\lenovo\\Downloads\\Compressed\\web2py\\gluon\\dal.py'
p147
sg76
(dp148
sg78
I1868
sg79
(dp149
sg81
S"(self=<gluon.dal.SQLiteAdapter object>, query=<Rows (5)>, fields=[], attributes={'distinct': True})"
p150
sg83
g140
sa(dp151
g74
S'C:\\Users\\lenovo\\Downloads\\Compressed\\web2py\\gluon\\dal.py'
p152
sg76
(dp153
sg78
I1697
sg79
(dp154
sg81
S"(self=<gluon.dal.SQLiteAdapter object>, query=<Rows (5)>, fields=[], attributes={'distinct': True})"
p155
sg83
S'_select'
p156
sasS'pyver'
p157
S'Python 2.7.6: C:\\Users\\lenovo\\Downloads\\Compressed\\web2py\\web2py.exe (prefix: )'
p158
sS'session'
p159
g69
(S's\xfa\n\x00\x00<div><table><tr><td style="font-weight:bold;vertical-align:top;">auth</td><td style="vertical-align:top;">:</td><td><div><table><tr><td style="font-weight:bold;vertical-align:top;">expiration</td><td style="vertical-align:top;">:</td><td><div>3600</div></td></tr><tr><td style="font-weight:bold;vertical-align:top;">hmac_key</td><td style="vertical-align:top;">:</td><td><div>a9c2be4b-697a-4f54-93ec-7bd46d4ad822</div></td></tr><tr><td style="font-weight:bold;vertical-align:top;">last_visit</td><td style="vertical-align:top;">:</td><td><div>datetime.datetime(2014, 11, 8, 1, 21, 39, 932000)</div></td></tr><tr><td style="font-weight:bold;vertical-align:top;">remember_me</td><td style="vertical-align:top;">:</td><td><div>False</div></td></tr><tr><td style="font-weight:bold;vertical-align:top;">user</td><td style="vertical-align:top;">:</td><td><div><table><tr><td style="font-weight:bold;vertical-align:top;">address</td><td style="vertical-align:top;">:</td><td><div>sdd</div></td></tr><tr><td style="font-weight:bold;vertical-align:top;">city</td><td style="vertical-align:top;">:</td><td><div>k</div></td></tr><tr><td style="font-weight:bold;vertical-align:top;">email</td><td style="vertical-align:top;">:</td><td><div>varmashubham2@gmail.com</div></td></tr><tr><td style="font-weight:bold;vertical-align:top;">first_name</td><td style="vertical-align:top;">:</td><td><div>Shubham</div></td></tr><tr><td style="font-weight:bold;vertical-align:top;">id</td><td style="vertical-align:top;">:</td><td><div>14L</div></td></tr><tr><td style="font-weight:bold;vertical-align:top;">last_name</td><td style="vertical-align:top;">:</td><td><div>Varma</div></td></tr><tr><td style="font-weight:bold;vertical-align:top;">phone</td><td style="vertical-align:top;">:</td><td><div>988080980</div></td></tr><tr><td style="font-weight:bold;vertical-align:top;">registration_id</td><td style="vertical-align:top;">:</td><td><div></div></td></tr><tr><td style="font-weight:bold;vertical-align:top;">registration_key</td><td style="vertical-align:top;">:</td><td><div></div></td></tr><tr><td style="font-weight:bold;vertical-align:top;">reset_password_key</td><td style="vertical-align:top;">:</td><td><div></div></td></tr><tr><td style="font-weight:bold;vertical-align:top;">zip</td><td style="vertical-align:top;">:</td><td><div>8989</div></td></tr></table></div></td></tr><tr><td style="font-weight:bold;vertical-align:top;">user_groups</td><td style="vertical-align:top;">:</td><td><div><table><tr><td style="font-weight:bold;vertical-align:top;">15</td><td style="vertical-align:top;">:</td><td><div>user_14</div></td></tr></table></div></td></tr></table></div></td></tr><tr><td style="font-weight:bold;vertical-align:top;">flash</td><td style="vertical-align:top;">:</td><td><div>None</div></td></tr></table></div>'
tRp160
sS'etype'
p161
S"<type 'exceptions.SyntaxError'>"
p162
sS'date'
p163
S'Sat Nov 08 01:26:12 2014'
p164
sS'response'
p165
g69
(S's\xa8\x1e\x00\x00<div><table><tr><td style="font-weight:bold;vertical-align:top;">body</td><td style="vertical-align:top;">:</td><td><div>&lt;cStringIO.StringO object at 0x0782CB00&gt;</div></td></tr><tr><td style="font-weight:bold;vertical-align:top;">cookies</td><td style="vertical-align:top;">:</td><td><div><table><tr><td style="font-weight:bold;vertical-align:top;">session_id_app1</td><td style="vertical-align:top;">:</td><td><div>127.0.0.1-8ffeabfb-5122-48cf-811a-eeb1b12331fb<table><tr><td style="font-weight:bold;vertical-align:top;">comment</td><td style="vertical-align:top;">:</td><td><div></div></td></tr><tr><td style="font-weight:bold;vertical-align:top;">domain</td><td style="vertical-align:top;">:</td><td><div></div></td></tr><tr><td style="font-weight:bold;vertical-align:top;">expires</td><td style="vertical-align:top;">:</td><td><div></div></td></tr><tr><td style="font-weight:bold;vertical-align:top;">httponly</td><td style="vertical-align:top;">:</td><td><div></div></td></tr><tr><td style="font-weight:bold;vertical-align:top;">max-age</td><td style="vertical-align:top;">:</td><td><div></div></td></tr><tr><td style="font-weight:bold;vertical-align:top;">path</td><td style="vertical-align:top;">:</td><td><div>/</div></td></tr><tr><td style="font-weight:bold;vertical-align:top;">secure</td><td style="vertical-align:top;">:</td><td><div></div></td></tr><tr><td style="font-weight:bold;vertical-align:top;">version</td><td style="vertical-align:top;">:</td><td><div></div></td></tr></table></div></td></tr></table></div></td></tr><tr><td style="font-weight:bold;vertical-align:top;">delimiters</td><td style="vertical-align:top;">:</td><td><div><table><tr><td><div>{{</div></td></tr><tr><td><div>}}</div></td></tr></table></div></td></tr><tr><td style="font-weight:bold;vertical-align:top;">files</td><td style="vertical-align:top;">:</td><td><div><table></table></div></td></tr><tr><td style="font-weight:bold;vertical-align:top;">flash</td><td style="vertical-align:top;">:</td><td><div>Success!</div></td></tr><tr><td style="font-weight:bold;vertical-align:top;">form_label_separator</td><td style="vertical-align:top;">:</td><td><div>: </div></td></tr><tr><td style="font-weight:bold;vertical-align:top;">formstyle</td><td style="vertical-align:top;">:</td><td><div>table3cols</div></td></tr><tr><td style="font-weight:bold;vertical-align:top;">generic_patterns</td><td style="vertical-align:top;">:</td><td><div><table><tr><td><div>*</div></td></tr></table></div></td></tr><tr><td style="font-weight:bold;vertical-align:top;">google_analytics_id</td><td style="vertical-align:top;">:</td><td><div>None</div></td></tr><tr><td style="font-weight:bold;vertical-align:top;">headers</td><td style="vertical-align:top;">:</td><td><div><table><tr><td style="font-weight:bold;vertical-align:top;">X-Powered-By</td><td style="vertical-align:top;">:</td><td><div>web2py</div></td></tr></table></div></td></tr><tr><td style="font-weight:bold;vertical-align:top;">logo</td><td style="vertical-align:top;">:</td><td><div><a class="brand" href="/app1/default/home"><b>Incredible Varanasi</b><sup> MADS</sup></a></div></td></tr><tr><td style="font-weight:bold;vertical-align:top;">menu</td><td style="vertical-align:top;">:</td><td><div><table><tr><td><div><table><tr><td><div>Home</div></td></tr><tr><td><div>False</div></td></tr><tr><td><div>/app1/default/home</div></td></tr><tr><td><div><table></table></div></td></tr></table></div></td></tr><tr><td><div><table><tr><td><div><span class="highlighted">About Us</span></div></td></tr><tr><td><div>False</div></td></tr><tr><td><div>show</div></td></tr><tr><td><div><table><tr><td><div><table><tr><td><div>Contact</div></td></tr><tr><td><div>False</div></td></tr><tr><td><div>/app1/default/create</div></td></tr></table></div></td></tr></table></div></td></tr></table></div></td></tr></table></div></td></tr><tr><td style="font-weight:bold;vertical-align:top;">meta</td><td style="vertical-align:top;">:</td><td><div><table><tr><td style="font-weight:bold;vertical-align:top;">author</td><td style="vertical-align:top;">:</td><td><div>Mehul Jain &lt;mehul.jain.cse12@iitbhu.ac.in&gt;</div></td></tr><tr><td style="font-weight:bold;vertical-align:top;">generator</td><td style="vertical-align:top;">:</td><td><div>Web2py Web Framework</div></td></tr><tr><td style="font-weight:bold;vertical-align:top;">keywords</td><td style="vertical-align:top;">:</td><td><div>home</div></td></tr></table></div></td></tr><tr><td style="font-weight:bold;vertical-align:top;">models_to_run</td><td style="vertical-align:top;">:</td><td><div><table><tr><td><div>^\\w+\\.py$</div></td></tr><tr><td><div>^default/\\w+\\.py$</div></td></tr><tr><td><div>^default/entertainment/\\w+\\.py$</div></td></tr></table></div></td></tr><tr><td style="font-weight:bold;vertical-align:top;">postprocessing</td><td style="vertical-align:top;">:</td><td><div><table></table></div></td></tr><tr><td style="font-weight:bold;vertical-align:top;">session_client</td><td style="vertical-align:top;">:</td><td><div>127.0.0.1</div></td></tr><tr><td style="font-weight:bold;vertical-align:top;">session_cookie_compression_level</td><td style="vertical-align:top;">:</td><td><div>None</div></td></tr><tr><td style="font-weight:bold;vertical-align:top;">session_cookie_expires</td><td style="vertical-align:top;">:</td><td><div>None</div></td></tr><tr><td style="font-weight:bold;vertical-align:top;">session_cookie_key</td><td style="vertical-align:top;">:</td><td><div>None</div></td></tr><tr><td style="font-weight:bold;vertical-align:top;">session_data_name</td><td style="vertical-align:top;">:</td><td><div>session_data_app1</div></td></tr><tr><td style="font-weight:bold;vertical-align:top;">session_file</td><td style="vertical-align:top;">:</td><td><div>&lt;open file &#x27;C:\\\\Users\\\\lenovo\\\\Downloads\\\\Compressed\\\\web2py\\\\applications\\\\app1\\\\sessions\\\\1f6\\\\04b\\\\127.0.0.1-8ffeabfb-5122-48cf-811a-eeb1b12331fb&#x27;, mode &#x27;rb+&#x27; at 0x06E78DE0&gt;</div></td></tr><tr><td style="font-weight:bold;vertical-align:top;">session_filename</td><td style="vertical-align:top;">:</td><td><div>C:\\Users\\lenovo\\Downloads\\Compressed\\web2py\\applications\\app1\\sessions\\127.0.0.1-8ffeabfb-5122-48cf-811a-eeb1b12331fb</div></td></tr><tr><td style="font-weight:bold;vertical-align:top;">session_hash</td><td style="vertical-align:top;">:</td><td><div>297321d94e5f332618f6046e3c5bc8a5</div></td></tr><tr><td style="font-weight:bold;vertical-align:top;">session_id</td><td style="vertical-align:top;">:</td><td><div>127.0.0.1-8ffeabfb-5122-48cf-811a-eeb1b12331fb</div></td></tr><tr><td style="font-weight:bold;vertical-align:top;">session_id_name</td><td style="vertical-align:top;">:</td><td><div>session_id_app1</div></td></tr><tr><td style="font-weight:bold;vertical-align:top;">session_locked</td><td style="vertical-align:top;">:</td><td><div>True</div></td></tr><tr><td style="font-weight:bold;vertical-align:top;">session_masterapp</td><td style="vertical-align:top;">:</td><td><div>app1</div></td></tr><tr><td style="font-weight:bold;vertical-align:top;">session_new</td><td style="vertical-align:top;">:</td><td><div>False</div></td></tr><tr><td style="font-weight:bold;vertical-align:top;">session_storage_type</td><td style="vertical-align:top;">:</td><td><div>file</div></td></tr><tr><td style="font-weight:bold;vertical-align:top;">status</td><td style="vertical-align:top;">:</td><td><div>200</div></td></tr><tr><td style="font-weight:bold;vertical-align:top;">subtitle</td><td style="vertical-align:top;">:</td><td><div></div></td></tr><tr><td style="font-weight:bold;vertical-align:top;">title</td><td style="vertical-align:top;">:</td><td><div>App1</div></td></tr><tr><td style="font-weight:bold;vertical-align:top;">view</td><td style="vertical-align:top;">:</td><td><div>default/entertainment.html</div></td></tr></table></div>'
tRp166
sS'locals'
p167
(dp168
S'tables'
p169
S'<bound method SQLiteAdapter.tables of <gluon.dal.SQLiteAdapter object>>'
p170
sS'fields'
p171
S'[]'
p172
sS'self'
p173
S'<gluon.dal.SQLiteAdapter object>'
p174
sS'tablenames'
p175
S'[]'
p176
sS'tablenames_for_common_filters'
p177
S'[]'
p178
sS'query'
p179
S'<Rows (5)>'
p180
sS'attributes'
p181
S"{'distinct': True}"
p182
sS'args_get'
p183
S'<built-in method get of dict object>'
p184
sssS'traceback'
p185
S'Traceback (most recent call last):\n  File "gluon/restricted.py", line 224, in restricted\n  File "C:\\Users\\lenovo\\Downloads\\Compressed\\web2py\\applications\\app1\\controllers/default.py", line 601, in <module>\n  File "gluon/globals.py", line 392, in <lambda>\n  File "gluon/tools.py", line 3439, in f\n  File "C:\\Users\\lenovo\\Downloads\\Compressed\\web2py\\applications\\app1\\controllers/default.py", line 81, in entertainment\n    y = db(x).select(distinct=True)\n  File "gluon/dal.py", line 10749, in select\n  File "gluon/dal.py", line 2472, in select\n  File "gluon/dal.py", line 1868, in select\n  File "gluon/dal.py", line 1697, in _select\nSyntaxError: Set: no tables selected\n'
p186
s.