(dp1
S'output'
p2
S"<type 'exceptions.AttributeError'> 'Table' object has no attribute 'ID_TS_2'"
p3
sS'layer'
p4
S'K:\\web2py_win\\web2py\\applications\\app1\\controllers/default.py'
p5
sS'code'
p6
S'# -*- coding: utf-8 -*-\n# this file is released under public domain and you can use without limitations\n\n#########################################################################\n## This is a sample controller\n## - index is the default action of any application\n## - user is required for authentication and authorization\n## - download is for downloading files uploaded in the db (does streaming)\n## - api is an example of Hypermedia API support and access control\n#########################################################################\ndef home():\n    response.flash = "welcome to incredible varanasi"\n    #mail.send(to=[\'mehuljain811@gmail.com\'],\n          #subject=\'hello\',\n          # If reply_to is omitted, then mail.settings.sender is used\n          #reply_to=\'mehuljain811@gmail.com\',\n          #message=\'hi there\')\n\n    response.files.append(URL(\'static\', \'css/background.css\'))\n    response.files.append(URL(\'static\', \'css/grid.css\'))\n    return locals()\n\n@auth.requires_login()\ndef bank():\n    #hrei_rows = db(db.places.place_type=="heritage").select(orderby = ~db.places.rating)\n    form = SQLFORM.factory(Field(\'Current Location\', requires=IS_IN_DB(db, \'places.place_name\', \'%(place_name)s\')))\n    check_form = form.process()\n    if check_form.accepted:\n        t=form.components[0]\n        bank_rows = db(db.place_distance.place2==t).select(db.place_distance.place1,db.place_distance.distance,orderby = db.place_distance.distance)\n        #hrei_near_rows = db.executesql(\'select place1,distance from place_distance where place2=selected_place order by distance\')\n    else:\n        bank_rows = db.executesql(\'select place_name,rating,Place_ID from places where place_type="bank" order by rating desc\')\n    return locals()\n\n@auth.requires_login()\ndef bank_place():\n    response.files.append(URL(\'static\', \'css/background_bank.css\'))\n    response.files.append(URL(\'static\', \'css/box_bank.css\'))\n    response.files.append(URL(\'static\', \'css/box_bank_contact.css\'))\n    postals = db(db.bank.ID_BK==request.args[0]).select()\n    phones = db(db.bank_2.ID_BK_2==request.args[0]).select(db.bank_2.Phone_BK)\n    db.visit_places.Place_ID.default = request.args[0]\n    db.visit_places.Place_ID.readable = False\n    db.visit_places.Place_ID.writable = False\n\n    db.visit_places.RU_ID_Place.readable = False\n    db.visit_places.RU_ID_Place.writable = False\n\n    form = SQLFORM(db.visit_places).process()\n    comments = db(db.visit_places.Place_ID==request.args[0]).select()\n\n    db.visit_places.RU_ID_Place.default = db.visit_places.created_by\n    return locals()\n\n\n@auth.requires_login()\ndef entertainment():\n    #hrei_rows = db(db.places.place_type=="heritage").select(orderby = ~db.places.rating)\n    form = SQLFORM.factory(Field(\'Current Location\', requires=IS_IN_DB(db, \'places.place_name\', \'%(place_name)s\')))\n    check_form = form.process()\n    if check_form.accepted:\n        t=form.components[0]\n        enter_rows = db(db.place_distance.place2==t).select(db.place_distance.place1,db.place_distance.distance,orderby = db.place_distance.distance)\n        #hrei_near_rows = db.executesql(\'select place1,distance from place_distance where place2=selected_place order by distance\')\n    else:\n        enter_rows = db.executesql(\'select place_name,rating,Place_ID from places where place_type="entertainment" order by rating desc\')\n    return locals()\n\n@auth.requires_login()\ndef enter_place():\n    response.files.append(URL(\'static\', \'css/background_entertainment.css\'))\n    response.files.append(URL(\'static\', \'css/box_entertainment.css\'))\n    postals = db(db.entertainment_hub.ID_EH==request.args[0]).select()\n    db.visit_places.Place_ID.default = request.args[0]\n    db.visit_places.Place_ID.readable = False\n    db.visit_places.Place_ID.writable = False\n    db.visit_places.RU_ID_Place.readable = False\n    db.visit_places.RU_ID_Place.writable = False\n\n    form = SQLFORM(db.visit_places).process()\n    comments = db(db.visit_places.Place_ID==request.args[0]).select()\n\n    db.visit_places.RU_ID_Place.default = db.visit_places.created_by\n    return locals()\n\n\n@auth.requires_login()\ndef fuel_agency():\n    #hrei_rows = db(db.places.place_type=="heritage").select(orderby = ~db.places.rating)\n    form = SQLFORM.factory(Field(\'Current Location\', requires=IS_IN_DB(db, \'places.place_name\', \'%(place_name)s\')))\n    check_form = form.process()\n    if check_form.accepted:\n        t=form.components[0]\n        fag_rows = db(db.place_distance.place2==t).select(db.place_distance.place1,db.place_distance.distance,orderby = db.place_distance.distance)\n        #hrei_near_rows = db.executesql(\'select place1,distance from place_distance where place2=selected_place order by distance\')\n    else:\n        fag_rows = db.executesql(\'select place_name,rating,Place_ID from places where place_type="fuel agency" order by rating desc\')\n    return locals()\n\n@auth.requires_login()\ndef fuelagency_place():\n    response.files.append(URL(\'static\', \'css/background_fuelagency.css\'))\n    response.files.append(URL(\'static\', \'css/box_fuel.css\'))\n    postals = db(db.fuel_agency.ID_FA==request.args[0]).select()\n    x = db.fuel_agency(db.fuel_agency.ID_FA==request.args[0])\n    affils = db(db.fuel_company.ID_FC==x.ID_FC_R).select()\n    phones = db(db.fuel_agency_2.ID_TS_2==request.args[0]).select(db.fuel_agency_2.Phone_FA,distinct=True)\n    db.visit_places.Place_ID.default = request.args[0]\n    db.visit_places.Place_ID.readable = False\n    db.visit_places.Place_ID.writable = False\n    db.visit_places.RU_ID_Place.readable = False\n    db.visit_places.RU_ID_Place.writable = False\n    form = SQLFORM(db.visit_places).process()\n    comments = db(db.visit_places.Place_ID==request.args[0]).select()\n\n    db.visit_places.RU_ID_Place.default = db.visit_places.created_by\n    return locals()\n\n\n\n@auth.requires_login()\ndef fuel_company():\n    #hrei_rows = db(db.places.place_type=="heritage").select(orderby = ~db.places.rating)\n    form = SQLFORM.factory(Field(\'Current Location\', requires=IS_IN_DB(db, \'places.place_name\', \'%(place_name)s\')))\n    check_form = form.process()\n    if check_form.accepted:\n        t=form.components[0]\n        fc_rows = db(db.place_distance.place2==t).select(db.place_distance.place1,db.place_distance.distance,orderby = db.place_distance.distance)\n        #hrei_near_rows = db.executesql(\'select place1,distance from place_distance where place2=selected_place order by distance\')\n    else:\n        fc_rows = db.executesql(\'select place_name,rating,Place_ID from places where place_type="fuel comapany" order by rating desc\')\n    return locals()\n\n\n@auth.requires_login()\ndef fuelcompany_place():\n    response.files.append(URL(\'static\', \'css/background_fuelcompany.css\'))\n    response.files.append(URL(\'static\', \'css/box_fuel.css\'))\n    postals = db(db.fuel_company.ID_FC==request.args[0]).select()\n    \n    db.visit_places.Place_ID.default = request.args[0]\n    db.visit_places.Place_ID.readable = False\n    db.visit_places.Place_ID.writable = False\n\n    db.visit_places.RU_ID_Place.readable = False\n    db.visit_places.RU_ID_Place.writable = False\n\n    form = SQLFORM(db.visit_places).process()\n    comments = db(db.visit_places.Place_ID==request.args[0]).select()\n\n    db.visit_places.RU_ID_Place.default = db.visit_places.created_by\n    return locals()\n\n@auth.requires_login()\ndef handloom():\n    #hrei_rows = db(db.places.place_type=="heritage").select(orderby = ~db.places.rating)\n    form = SQLFORM.factory(Field(\'Current Location\', requires=IS_IN_DB(db, \'places.place_name\', \'%(place_name)s\')))\n    check_form = form.process()\n    if check_form.accepted:\n        t=form.components[0]\n        hand_rows = db(db.place_distance.place2==t).select(db.place_distance.place1,db.place_distance.distance,orderby = db.place_distance.distance)\n        #hrei_near_rows = db.executesql(\'select place1,distance from place_distance where place2=selected_place order by distance\')\n    else:\n        hand_rows = db.executesql(\'select place_name,rating,Place_ID from places where place_type="handloom" order by rating desc\')\n    return locals()\n\n@auth.requires_login()\ndef handloom_place():\n    response.files.append(URL(\'static\', \'css/background_handloom.css\'))\n    response.files.append(URL(\'static\', \'css/box_handloom.css\'))\n    postals = db(db.local_handlooms.ID_LH==request.args[0]).select()\n    phones = db(db.local_handlooms_2.ID_LH_2==request.args[0]).select(db.local_handlooms_2.Phone_LH)\n    db.visit_places.Place_ID.default = request.args[0]\n    db.visit_places.Place_ID.readable = False\n    db.visit_places.Place_ID.writable = False\n\n    db.visit_places.RU_ID_Place.readable = False\n    db.visit_places.RU_ID_Place.writable = False\n\n    form = SQLFORM(db.visit_places).process()\n    comments = db(db.visit_places.Place_ID==request.args[0]).select()\n\n    db.visit_places.RU_ID_Place.default = db.visit_places.created_by\n    return locals()\n\n\n\n\n@auth.requires_login()\ndef heritage():\n    #hrei_rows = db(db.places.place_type=="heritage").select(orderby = ~db.places.rating)\n    form = SQLFORM.factory(Field(\'Current Location\', requires=IS_IN_DB(db, \'places.place_name\', \'%(place_name)s\')))\n    check_form = form.process()\n    if check_form.accepted:\n        t=form.components[0]\n        hrei_rows = db(db.place_distance.place2==t).select(db.place_distance.place1,db.place_distance.distance,orderby = db.place_distance.distance)\n        #hrei_near_rows = db.executesql(\'select place1,distance from place_distance where place2=selected_place order by distance\')\n    else:\n        hrei_rows = db.executesql(\'select Place_Name as place1,rating,Place_ID from places where Place_Type="heritage" order by rating desc\')\n    return locals()\n\n@auth.requires_login()\ndef heri_place():\n    response.files.append(URL(\'static\', \'css/background_heritage.css\'))\n    response.files.append(URL(\'static\', \'css/box_heritage.css\'))\n    #postal = db.heritage_areas(request.args)\n    #posts = db.executesql(\'select * from heritage_areas where ID_HA="ha1"\')\n    postals = db(db.heritage_areas.ID_HA==request.args[0]).select()\n    db.visit_places.Place_ID.default = request.args[0]\n    db.visit_places.Place_ID.readable = False\n    db.visit_places.Place_ID.writable = False\n\n    db.visit_places.RU_ID_Place.readable = False\n    db.visit_places.RU_ID_Place.writable = False\n\n    form = SQLFORM(db.visit_places).process()\n    comments = db(db.visit_places.Place_ID==request.args[0]).select()\n\n    db.visit_places.RU_ID_Place.default = db.visit_places.created_by\n\n    return locals()\n\n\n\n\n\n@auth.requires_login()\ndef hotel():\n    #hrei_rows = db(db.places.place_type=="heritage").select(orderby = ~db.places.rating)\n    form = SQLFORM.factory(Field(\'Current Location\', requires=IS_IN_DB(db, \'places.place_name\', \'%(place_name)s\')))\n    check_form = form.process()\n    if check_form.accepted:\n        t=form.components[0]\n        hotel_rows = db(db.place_distance.place2==t).select(db.place_distance.place1,db.place_distance.distance,orderby = db.place_distance.distance)\n        #hrei_near_rows = db.executesql(\'select place1,distance from place_distance where place2=selected_place order by distance\')\n    else:\n        hotel_rows = db.executesql(\'select place_name,rating,Place_ID from places where place_type="hotel" order by rating desc\')\n    return locals()\n\n@auth.requires_login()\ndef hotel_place():\n    response.files.append(URL(\'static\', \'css/background_hotel.css\'))\n    response.files.append(URL(\'static\', \'css/box_entertainment.css\'))\n    postals = db(db.hotels.ID_HT==request.args[0]).select()\n    \n    db.visit_places.Place_ID.default = request.args[0]\n    db.visit_places.Place_ID.readable = False\n    db.visit_places.Place_ID.writable = False\n\n    db.visit_places.RU_ID_Place.readable = False\n    db.visit_places.RU_ID_Place.writable = False\n\n    form = SQLFORM(db.visit_places).process()\n    comments = db(db.visit_places.Place_ID==request.args[0]).select()\n\n    db.visit_places.RU_ID_Place.default = db.visit_places.created_by\n    return locals()\n\n\n@auth.requires_login()\ndef recreation():\n    #hrei_rows = db(db.places.place_type=="heritage").select(orderby = ~db.places.rating)\n    form = SQLFORM.factory(Field(\'Current Location\', requires=IS_IN_DB(db, \'places.place_name\', \'%(place_name)s\')))\n    check_form = form.process()\n    if check_form.accepted:\n        t=form.components[0]\n        rec_rows = db(db.place_distance.place2==t).select(db.place_distance.place1,db.place_distance.distance,orderby = db.place_distance.distance)\n        #hrei_near_rows = db.executesql(\'select place1,distance from place_distance where place2=selected_place order by distance\')\n    else:\n        rec_rows = db.executesql(\'select place_name,rating,Place_ID from places where place_type="recreation" order by rating desc\')\n    return locals()\n\n@auth.requires_login()\ndef recreat_place():\n    response.files.append(URL(\'static\', \'css/background_recreation.css\'))\n    response.files.append(URL(\'static\', \'css/box_entertainment.css\'))\n    postals = db(db.recreation_hub.ID_RH==request.args[0]).select()\n    \n    db.visit_places.Place_ID.default = request.args[0]\n    db.visit_places.Place_ID.readable = False\n    db.visit_places.Place_ID.writable = False\n\n    db.visit_places.RU_ID_Place.readable = False\n    db.visit_places.RU_ID_Place.writable = False\n\n    form = SQLFORM(db.visit_places).process()\n    comments = db(db.visit_places.Place_ID==request.args[0]).select()\n\n    db.visit_places.RU_ID_Place.default = db.visit_places.created_by\n    return locals()\n\n\n\n\n@auth.requires_login()\ndef restaurant():\n    #hrei_rows = db(db.places.place_type=="heritage").select(orderby = ~db.places.rating)\n    form = SQLFORM.factory(Field(\'Current Location\', requires=IS_IN_DB(db, \'places.place_name\', \'%(place_name)s\')))\n    check_form = form.process()\n    if check_form.accepted:\n        t=form.components[0]\n        restaur_rows = db(db.place_distance.place2==t).select(db.place_distance.place1,db.place_distance.distance,orderby = db.place_distance.distance)\n        #hrei_near_rows = db.executesql(\'select place1,distance from place_distance where place2=selected_place order by distance\')\n    else:\n        restaur_rows = db.executesql(\'select place_name,rating,Place_ID from places where place_type="restaurant" order by rating desc\')\n    return locals()\n\n@auth.requires_login()\ndef restaur_place():\n    response.files.append(URL(\'static\', \'css/background_restaurant.css\'))\n    response.files.append(URL(\'static\', \'css/box_fuel.css\'))\n    postals = db(db.restaurant.ID_RS==request.args[0]).select()\n    phones = db(db.restaurant_2.ID_RS_2==request.args[0]).select(db.restaurant_2.Phone_RS)\n    db.visit_places.Place_ID.default = request.args[0]\n    db.visit_places.Place_ID.readable = False\n    db.visit_places.Place_ID.writable = False\n\n    db.visit_places.RU_ID_Place.readable = False\n    db.visit_places.RU_ID_Place.writable = False\n\n    form = SQLFORM(db.visit_places).process()\n    comments = db(db.visit_places.Place_ID==request.args[0]).select()\n\n    db.visit_places.RU_ID_Place.default = db.visit_places.created_by\n    return locals()\n\n\n@auth.requires_login()\ndef spiritual():\n    #hrei_rows = db(db.places.place_type=="heritage").select(orderby = ~db.places.rating)\n    form = SQLFORM.factory(Field(\'Current Location\', requires=IS_IN_DB(db, \'places.place_name\', \'%(place_name)s\')))\n    check_form = form.process()\n    if check_form.accepted:\n        t=form.components[0]\n        spirit_rows = db(db.place_distance.place2==t).select(db.place_distance.place1,db.place_distance.distance,orderby = db.place_distance.distance)\n        #hrei_near_rows = db.executesql(\'select place1,distance from place_distance where place2=selected_place order by distance\')\n    else:\n        spirit_rows = db.executesql(\'select place_name,rating,Place_ID from places where place_type="spiritual" order by rating desc\')\n    return locals()\n\n@auth.requires_login()\ndef spirit_place():\n    response.files.append(URL(\'static\', \'css/background_spiritual.css\'))\n    response.files.append(URL(\'static\', \'css/box_spiritual.css\'))\n    postals = db(db.spiritual_hub.ID_SH==request.args[0]).select()\n    \n    db.visit_places.Place_ID.default = request.args[0]\n    db.visit_places.Place_ID.readable = False\n    db.visit_places.Place_ID.writable = False\n\n    db.visit_places.RU_ID_Place.readable = False\n    db.visit_places.RU_ID_Place.writable = False\n\n    form = SQLFORM(db.visit_places).process()\n    comments = db(db.visit_places.Place_ID==request.args[0]).select()\n\n    db.visit_places.RU_ID_Place.default = db.visit_places.created_by\n    return locals()\n\n\n@auth.requires_login()\ndef taxi_service():\n    #hrei_rows = db(db.places.place_type=="heritage").select(orderby = ~db.places.rating)\n    form = SQLFORM.factory(Field(\'Current Location\', requires=IS_IN_DB(db, \'places.place_name\', \'%(place_name)s\')))\n    check_form = form.process()\n    if check_form.accepted:\n        t=form.components[0]\n        taxi_rows = db(db.place_distance.place2==t).select(db.place_distance.place1,db.place_distance.distance,orderby = db.place_distance.distance)\n        #hrei_near_rows = db.executesql(\'select place1,distance from place_distance where place2=selected_place order by distance\')\n    else:\n        taxi_rows = db.executesql(\'select place_name,rating,Place_ID from places where place_type="taxi service" order by rating desc\')\n    return locals()\n\n@auth.requires_login()\ndef taxi_place():\n    response.files.append(URL(\'static\', \'css/background_taxiservice.css\'))\n    response.files.append(URL(\'static\', \'css/box_taxiservice.css\'))\n    postals = db(db.taxi_service.ID_TS==request.args[0]).select()\n    phones = db(db.taxi_service_2.ID_TS_2==request.args[0]).select(db.taxi_service_2.Phone_TS,distinct=True)\n    carprices = db(db.taxi_service_2.ID_TS_2==request.args[0]).select(db.taxi_service_2.Car_Price_TS,distinct=True)\n    cartypes = db(db.taxi_service_2.ID_TS_2==request.args[0]).select(db.taxi_service_2.Car_Types_TS,distinct=True)\n    db.visit_places.Place_ID.default = request.args[0]\n    db.visit_places.Place_ID.readable = False\n    db.visit_places.Place_ID.writable = False\n\n    db.visit_places.RU_ID_Place.readable = False\n    db.visit_places.RU_ID_Place.writable = False\n\n    form = SQLFORM(db.visit_places).process()\n    comments = db(db.visit_places.Place_ID==request.args[0]).select()\n\n    db.visit_places.RU_ID_Place.default = db.visit_places.created_by\n    return locals()\n\n@auth.requires_login()\ndef travel_agency():\n    #hrei_rows = db(db.places.place_type=="heritage").select(orderby = ~db.places.rating)\n    form = SQLFORM.factory(Field(\'Current Location\', requires=IS_IN_DB(db, \'places.place_name\', \'%(place_name)s\')))\n    check_form = form.process()\n    if check_form.accepted:\n        t=form.components[0]\n        travel_rows = db(db.place_distance.place2==t).select(db.place_distance.place1,db.place_distance.distance,orderby = db.place_distance.distance)\n        #hrei_near_rows = db.executesql(\'select place1,distance from place_distance where place2=selected_place order by distance\')\n    else:\n        travel_rows = db.executesql(\'select place_name,rating,Place_ID from places where place_type="travel agency" order by rating desc\')\n    return locals()\n\n@auth.requires_login()\ndef travel_place():\n    response.files.append(URL(\'static\', \'css/background_travelagency.css\'))\n    response.files.append(URL(\'static\', \'css/box_fuel.css\'))\n    postals = db(db.travel_agency.ID_TA==request.args[0]).select()\n    phones = db(db.Travel_Agency_2.ID_TA_2==request.args[0]).select(db.Travel_Agency_2.Phone_TA)\n    tour_package = db(db.Travel_Agency_2.ID_TA_2==request.args[0]).select(db.Travel_Agency_2.Tour_Package_TA)\n    db.visit_places.Place_ID.default = request.args[0]\n    db.visit_places.Place_ID.readable = False\n    db.visit_places.Place_ID.writable = False\n\n    db.visit_places.RU_ID_Place.readable = False\n    db.visit_places.RU_ID_Place.writable = False\n\n    form = SQLFORM(db.visit_places).process()\n    comments = db(db.visit_places.Place_ID==request.args[0]).select()\n\n    db.visit_places.RU_ID_Place.default = db.visit_places.created_by\n    return locals()\n\n\n\n\n\ndef index():\n    """\n    example action using the internationalization operator T and flash\n    rendered by views/default/index.html or views/generic.html\n\n    if you need a simple wiki simply replace the two lines below with:\n    return auth.wiki()\n    """\n    #rows = db(db.blog_post).select()\n    #response.flash = T("Welcome to Incredible Varanasi")\n    redirect(URL(\'home\'))\n    return locals()\n#@auth.requires_login()\n\ndef comment():\n    x = request.args[0]\n    y = request.args[1]\n    postals = db(db.visit_reply.postid==x).select()\n    db.visit_reply.postid.default = x\n    db.visit_reply.postid.readable = False\n    db.visit_reply.postid.writable = False\n    form = SQLFORM(db.visit_reply).process()\n\n    if form.accepted:\n        postals = db(db.visit_reply.postid==request.args[0]).select()\n    return locals()\n    \ndef create():\n    x = "Created by: Mehul Jain"\n    return x\ndef show():\n    return "Team MADS"\n\ndef user():\n    """\n    exposes:\n    http://..../[app]/default/user/login\n    http://..../[app]/default/user/logout\n    http://..../[app]/default/user/register\n    http://..../[app]/default/user/profile\n    http://..../[app]/default/user/retrieve_password\n    http://..../[app]/default/user/change_password\n    http://..../[app]/default/user/manage_users (requires membership in\n    use @auth.requires_login()\n        @auth.requires_membership(\'group name\')\n        @auth.requires_permission(\'read\',\'table name\',record_id)\n    to decorate functions that need access control\n    """\n    return dict(form=auth())\n\n\n@cache.action()\ndef download():\n    """\n    allows downloading of uploaded files\n    http://..../[app]/default/download/[filename]\n    """\n    return response.download(request, db)\n\n\ndef call():\n    """\n    exposes services. for example:\n    http://..../[app]/default/call/jsonrpc\n    decorate with @services.jsonrpc the functions to expose\n    supports xml, json, xmlrpc, jsonrpc, amfrpc, rss, csv\n    """\n    return service()\n\n\n@auth.requires_login()\ndef api():\n    """\n    this is example of API with access control\n    WEB2PY provides Hypermedia API (Collection+JSON) Experimental\n    """\n    from gluon.contrib.hypermedia import Collection\n    rules = {\n        \'<tablename>\': {\'GET\':{},\'POST\':{},\'PUT\':{},\'DELETE\':{}},\n        }\n    return Collection(db).process(request,response,rules)\n\nresponse._vars=response._caller(fuelagency_place)\n'
p7
sS'snapshot'
p8
(dp9
S'exception'
p10
(dp11
S'__hash__'
p12
S"<method-wrapper '__hash__' of exceptions.AttributeError object>"
p13
sS'__setattr__'
p14
S"<method-wrapper '__setattr__' of exceptions.AttributeError object>"
p15
sS'__reduce_ex__'
p16
S'<built-in method __reduce_ex__ of exceptions.AttributeError object>'
p17
sS'__getslice__'
p18
S"<method-wrapper '__getslice__' of exceptions.AttributeError object>"
p19
sS'__getitem__'
p20
S"<method-wrapper '__getitem__' of exceptions.AttributeError object>"
p21
sS'__setstate__'
p22
S'<built-in method __setstate__ of exceptions.AttributeError object>'
p23
sS'__reduce__'
p24
S'<built-in method __reduce__ of exceptions.AttributeError object>'
p25
sS'__str__'
p26
S"<method-wrapper '__str__' of exceptions.AttributeError object>"
p27
sS'__format__'
p28
S'<built-in method __format__ of exceptions.AttributeError object>'
p29
sS'__getattribute__'
p30
S"<method-wrapper '__getattribute__' of exceptions.AttributeError object>"
p31
sS'__class__'
p32
S"<type 'exceptions.AttributeError'>"
p33
sS'__unicode__'
p34
S'<built-in method __unicode__ of exceptions.AttributeError object>'
p35
sS'__delattr__'
p36
S"<method-wrapper '__delattr__' of exceptions.AttributeError object>"
p37
sS'__subclasshook__'
p38
S'<built-in method __subclasshook__ of type object>'
p39
sS'__repr__'
p40
S"<method-wrapper '__repr__' of exceptions.AttributeError object>"
p41
sS'args'
p42
S'("\'Table\' object has no attribute \'ID_TS_2\'",)'
p43
sS'__dict__'
p44
S'{}'
p45
sS'__sizeof__'
p46
S'<built-in method __sizeof__ of exceptions.AttributeError object>'
p47
sS'__doc__'
p48
S"'Attribute not found.'"
p49
sS'__init__'
p50
S"<method-wrapper '__init__' of exceptions.AttributeError object>"
p51
sS'__new__'
p52
S'<built-in method __new__ of type object>'
p53
ssS'evalue'
p54
S"'Table' object has no attribute 'ID_TS_2'"
p55
sS'request'
p56
cgluon.html
XML_unpickle
p57
(S's\x87^\x00\x00<div><table><tr><td style="font-weight:bold;vertical-align:top;">ajax</td><td style="vertical-align:top;">:</td><td><div>False</div></td></tr><tr><td style="font-weight:bold;vertical-align:top;">application</td><td style="vertical-align:top;">:</td><td><div>app1</div></td></tr><tr><td style="font-weight:bold;vertical-align:top;">args</td><td style="vertical-align:top;">:</td><td><div><table><tr><td><div>FA1</div></td></tr></table></div></td></tr><tr><td style="font-weight:bold;vertical-align:top;">cid</td><td style="vertical-align:top;">:</td><td><div>None</div></td></tr><tr><td style="font-weight:bold;vertical-align:top;">client</td><td style="vertical-align:top;">:</td><td><div>127.0.0.1</div></td></tr><tr><td style="font-weight:bold;vertical-align:top;">controller</td><td style="vertical-align:top;">:</td><td><div>default</div></td></tr><tr><td style="font-weight:bold;vertical-align:top;">cookies</td><td style="vertical-align:top;">:</td><td><div><table><tr><td style="font-weight:bold;vertical-align:top;">session_id_admin</td><td style="vertical-align:top;">:</td><td><div>127.0.0.1-e11d139b-ae74-41b2-a41b-781a1d57acf5<table><tr><td style="font-weight:bold;vertical-align:top;">comment</td><td style="vertical-align:top;">:</td><td><div></div></td></tr><tr><td style="font-weight:bold;vertical-align:top;">domain</td><td style="vertical-align:top;">:</td><td><div></div></td></tr><tr><td style="font-weight:bold;vertical-align:top;">expires</td><td style="vertical-align:top;">:</td><td><div></div></td></tr><tr><td style="font-weight:bold;vertical-align:top;">httponly</td><td style="vertical-align:top;">:</td><td><div></div></td></tr><tr><td style="font-weight:bold;vertical-align:top;">max-age</td><td style="vertical-align:top;">:</td><td><div></div></td></tr><tr><td style="font-weight:bold;vertical-align:top;">path</td><td style="vertical-align:top;">:</td><td><div></div></td></tr><tr><td style="font-weight:bold;vertical-align:top;">secure</td><td style="vertical-align:top;">:</td><td><div></div></td></tr><tr><td style="font-weight:bold;vertical-align:top;">version</td><td style="vertical-align:top;">:</td><td><div></div></td></tr></table></div></td></tr><tr><td style="font-weight:bold;vertical-align:top;">session_id_app1</td><td style="vertical-align:top;">:</td><td><div>127.0.0.1-2b66bbd2-47f9-4a12-8fc2-546e326c7003<table><tr><td style="font-weight:bold;vertical-align:top;">comment</td><td style="vertical-align:top;">:</td><td><div></div></td></tr><tr><td style="font-weight:bold;vertical-align:top;">domain</td><td style="vertical-align:top;">:</td><td><div></div></td></tr><tr><td style="font-weight:bold;vertical-align:top;">expires</td><td style="vertical-align:top;">:</td><td><div></div></td></tr><tr><td style="font-weight:bold;vertical-align:top;">httponly</td><td style="vertical-align:top;">:</td><td><div></div></td></tr><tr><td style="font-weight:bold;vertical-align:top;">max-age</td><td style="vertical-align:top;">:</td><td><div></div></td></tr><tr><td style="font-weight:bold;vertical-align:top;">path</td><td style="vertical-align:top;">:</td><td><div></div></td></tr><tr><td style="font-weight:bold;vertical-align:top;">secure</td><td style="vertical-align:top;">:</td><td><div></div></td></tr><tr><td style="font-weight:bold;vertical-align:top;">version</td><td style="vertical-align:top;">:</td><td><div></div></td></tr></table></div></td></tr><tr><td style="font-weight:bold;vertical-align:top;">session_id_welcome</td><td style="vertical-align:top;">:</td><td><div>127.0.0.1-2066ed58-d4eb-4704-b7c6-c84ec4b3bee6<table><tr><td style="font-weight:bold;vertical-align:top;">comment</td><td style="vertical-align:top;">:</td><td><div></div></td></tr><tr><td style="font-weight:bold;vertical-align:top;">domain</td><td style="vertical-align:top;">:</td><td><div></div></td></tr><tr><td style="font-weight:bold;vertical-align:top;">expires</td><td style="vertical-align:top;">:</td><td><div></div></td></tr><tr><td style="font-weight:bold;vertical-align:top;">httponly</td><td style="vertical-align:top;">:</td><td><div></div></td></tr><tr><td style="font-weight:bold;vertical-align:top;">max-age</td><td style="vertical-align:top;">:</td><td><div></div></td></tr><tr><td style="font-weight:bold;vertical-align:top;">path</td><td style="vertical-align:top;">:</td><td><div></div></td></tr><tr><td style="font-weight:bold;vertical-align:top;">secure</td><td style="vertical-align:top;">:</td><td><div></div></td></tr><tr><td style="font-weight:bold;vertical-align:top;">version</td><td style="vertical-align:top;">:</td><td><div></div></td></tr></table></div></td></tr></table></div></td></tr><tr><td style="font-weight:bold;vertical-align:top;">env</td><td style="vertical-align:top;">:</td><td><div><table><tr><td style="font-weight:bold;vertical-align:top;">HTTP_ACCEPT</td><td style="vertical-align:top;">:</td><td><div>text/html,application/xhtml+xml,application/xml;q=0.9,image/webp,*/*;q=0.8</div></td></tr><tr><td style="font-weight:bold;vertical-align:top;">HTTP_ACCEPT_ENCODING</td><td style="vertical-align:top;">:</td><td><div>gzip,deflate,sdch</div></td></tr><tr><td style="font-weight:bold;vertical-align:top;">HTTP_ACCEPT_LANGUAGE</td><td style="vertical-align:top;">:</td><td><div>en-US,en;q=0.8</div></td></tr><tr><td style="font-weight:bold;vertical-align:top;">HTTP_CONNECTION</td><td style="vertical-align:top;">:</td><td><div>keep-alive</div></td></tr><tr><td style="font-weight:bold;vertical-align:top;">HTTP_COOKIE</td><td style="vertical-align:top;">:</td><td><div>session_id_welcome=127.0.0.1-2066ed58-d4eb-4704-b7c6-c84ec4b3bee6; session_id_admin=127.0.0.1-e11d139b-ae74-41b2-a41b-781a1d57acf5; session_id_app1=127.0.0.1-2b66bbd2-47f9-4a12-8fc2-546e326c7003</div></td></tr><tr><td style="font-weight:bold;vertical-align:top;">HTTP_HOST</td><td style="vertical-align:top;">:</td><td><div>127.0.0.1:8000</div></td></tr><tr><td style="font-weight:bold;vertical-align:top;">HTTP_REFERER</td><td style="vertical-align:top;">:</td><td><div>http://127.0.0.1:8000/app1/default/fuel_agency</div></td></tr><tr><td style="font-weight:bold;vertical-align:top;">HTTP_USER_AGENT</td><td style="vertical-align:top;">:</td><td><div>Mozilla/5.0 (Windows NT 6.3; WOW64) AppleWebKit/537.36 (KHTML, like Gecko) Chrome/38.0.2125.104 Safari/537.36</div></td></tr><tr><td style="font-weight:bold;vertical-align:top;">PATH_INFO</td><td style="vertical-align:top;">:</td><td><div>/app1/default/fuelagency_place/FA1</div></td></tr><tr><td style="font-weight:bold;vertical-align:top;">QUERY_STRING</td><td style="vertical-align:top;">:</td><td><div></div></td></tr><tr><td style="font-weight:bold;vertical-align:top;">REMOTE_ADDR</td><td style="vertical-align:top;">:</td><td><div>127.0.0.1</div></td></tr><tr><td style="font-weight:bold;vertical-align:top;">REMOTE_PORT</td><td style="vertical-align:top;">:</td><td><div>15601</div></td></tr><tr><td style="font-weight:bold;vertical-align:top;">REQUEST_METHOD</td><td style="vertical-align:top;">:</td><td><div>GET</div></td></tr><tr><td style="font-weight:bold;vertical-align:top;">SCRIPT_NAME</td><td style="vertical-align:top;">:</td><td><div></div></td></tr><tr><td style="font-weight:bold;vertical-align:top;">SERVER_NAME</td><td style="vertical-align:top;">:</td><td><div>DS</div></td></tr><tr><td style="font-weight:bold;vertical-align:top;">SERVER_PORT</td><td style="vertical-align:top;">:</td><td><div>8000</div></td></tr><tr><td style="font-weight:bold;vertical-align:top;">SERVER_PROTOCOL</td><td style="vertical-align:top;">:</td><td><div>HTTP/1.1</div></td></tr><tr><td style="font-weight:bold;vertical-align:top;">SERVER_SOFTWARE</td><td style="vertical-align:top;">:</td><td><div>Rocket 1.2.6</div></td></tr><tr><td style="font-weight:bold;vertical-align:top;">app_folders</td><td style="vertical-align:top;">:</td><td><div>set([&#x27;K:\\\\web2py_win\\\\web2py\\\\applications\\\\admin\\\\&#x27;, &#x27;K:\\\\web2py_win\\\\web2py\\\\applications\\\\app1\\\\&#x27;, &#x27;K:\\\\web2py_win\\\\web2py\\\\applications\\\\welcome\\\\&#x27;])</div></td></tr><tr><td style="font-weight:bold;vertical-align:top;">applications_parent</td><td style="vertical-align:top;">:</td><td><div>K:\\web2py_win\\web2py</div></td></tr><tr><td style="font-weight:bold;vertical-align:top;">cmd_args</td><td style="vertical-align:top;">:</td><td><div><table></table></div></td></tr><tr><td style="font-weight:bold;vertical-align:top;">cmd_options</td><td style="vertical-align:top;">:</td><td><div>&lt;Values at 0x1fe4648: {&#x27;verbose&#x27;: False, &#x27;ip&#x27;: &#x27;127.0.0.1&#x27;, &#x27;debuglevel&#x27;: 30, &#x27;with_scheduler&#x27;: False, &#x27;ips&#x27;: [&#x27;fe80::817b:1680:b17a:2e9c%4&#x27;, &#x27;fe80::2482:bd98:73ee:c63e%20&#x27;, &#x27;10.9.11.12&#x27;, &#x27;172.17.32.111&#x27;, &#x27;fe80::2987:c43e:ae9f:be5f%19&#x27;, &#x27;192.168.80.1&#x27;], &#x27;shutdown_timeout&#x27;: 5, &#x27;taskbar&#x27;: False, &#x27;with_coverage&#x27;: False, &#x27;scheduler_groups&#x27;: None, &#x27;port&#x27;: 8000, &#x27;maxthreads&#x27;: None, &#x27;softcron&#x27;: False, &#x27;server_name&#x27;: &#x27;DS&#x27;, &#x27;bpython&#x27;: False, &#x27;nogui&#x27;: False, &#x27;pid_filename&#x27;: &#x27;httpserver.pid&#x27;, &#x27;extcron&#x27;: False, &#x27;runcron&#x27;: False, &#x27;run_system_tests&#x27;: False, &#x27;test&#x27;: None, &#x27;folder&#x27;: &#x27;K:\\\\web2py_win\\\\web2py&#x27;, &#x27;config&#x27;: &#x27;&#x27;, &#x27;minthreads&#x27;: None, &#x27;shell&#x27;: None, &#x27;run&#x27;: &#x27;&#x27;, &#x27;log_filename&#x27;: &#x27;httpserver.log&#x27;, &#x27;profiler_dir&#x27;: None, &#x27;args&#x27;: [&#x27;&#x27;], &#x27;socket_timeout&#x27;: 5, &#x27;ssl_ca_certificate&#x27;: None, &#x27;scheduler&#x27;: None, &#x27;interfaces&#x27;: None, &#x27;ssl_private_key&#x27;: &#x27;&#x27;, &#x27;gae&#x27;: None, &#x27;password&#x27;: &#x27;&lt;ask&gt;&#x27;, &#x27;request_queue_size&#x27;: 5, &#x27;ssl_certificate&#x27;: &#x27;&#x27;, &#x27;cronjob&#x27;: False, &#x27;numthreads&#x27;: None, &#x27;quiet&#x27;: False, &#x27;import_models&#x27;: False, &#x27;timeout&#x27;: 10, &#x27;plain&#x27;: False, &#x27;nobanner&#x27;: False}&gt;</div></td></tr><tr><td style="font-weight:bold;vertical-align:top;">db_sessions</td><td style="vertical-align:top;">:</td><td><div>set([])</div></td></tr><tr><td style="font-weight:bold;vertical-align:top;">debugging</td><td style="vertical-align:top;">:</td><td><div>True</div></td></tr><tr><td style="font-weight:bold;vertical-align:top;">gluon_parent</td><td style="vertical-align:top;">:</td><td><div>K:\\web2py_win\\web2py</div></td></tr><tr><td style="font-weight:bold;vertical-align:top;">http_accept</td><td style="vertical-align:top;">:</td><td><div>text/html,application/xhtml+xml,application/xml;q=0.9,image/webp,*/*;q=0.8</div></td></tr><tr><td style="font-weight:bold;vertical-align:top;">http_accept_encoding</td><td style="vertical-align:top;">:</td><td><div>gzip,deflate,sdch</div></td></tr><tr><td style="font-weight:bold;vertical-align:top;">http_accept_language</td><td style="vertical-align:top;">:</td><td><div>en-US,en;q=0.8</div></td></tr><tr><td style="font-weight:bold;vertical-align:top;">http_connection</td><td style="vertical-align:top;">:</td><td><div>keep-alive</div></td></tr><tr><td style="font-weight:bold;vertical-align:top;">http_cookie</td><td style="vertical-align:top;">:</td><td><div>session_id_welcome=127.0.0.1-2066ed58-d4eb-4704-b7c6-c84ec4b3bee6; session_id_admin=127.0.0.1-e11d139b-ae74-41b2-a41b-781a1d57acf5; session_id_app1=127.0.0.1-2b66bbd2-47f9-4a12-8fc2-546e326c7003</div></td></tr><tr><td style="font-weight:bold;vertical-align:top;">http_host</td><td style="vertical-align:top;">:</td><td><div>127.0.0.1:8000</div></td></tr><tr><td style="font-weight:bold;vertical-align:top;">http_referer</td><td style="vertical-align:top;">:</td><td><div>http://127.0.0.1:8000/app1/default/fuel_agency</div></td></tr><tr><td style="font-weight:bold;vertical-align:top;">http_user_agent</td><td style="vertical-align:top;">:</td><td><div>Mozilla/5.0 (Windows NT 6.3; WOW64) AppleWebKit/537.36 (KHTML, like Gecko) Chrome/38.0.2125.104 Safari/537.36</div></td></tr><tr><td style="font-weight:bold;vertical-align:top;">is_jython</td><td style="vertical-align:top;">:</td><td><div>False</div></td></tr><tr><td style="font-weight:bold;vertical-align:top;">is_pypy</td><td style="vertical-align:top;">:</td><td><div>False</div></td></tr><tr><td style="font-weight:bold;vertical-align:top;">is_source</td><td style="vertical-align:top;">:</td><td><div>False</div></td></tr><tr><td style="font-weight:bold;vertical-align:top;">local_hosts</td><td style="vertical-align:top;">:</td><td><div><table><tr><td><div>fe80::817b:1680:b17a:2e9c%4</div></td></tr><tr><td><div>fe80::2482:bd98:73ee:c63e%20</div></td></tr><tr><td><div>10.9.11.12</div></td></tr><tr><td><div>::ffff:127.0.0.1</div></td></tr><tr><td><div>::1</div></td></tr><tr><td><div>172.17.32.111</div></td></tr><tr><td><div>fe80::2987:c43e:ae9f:be5f%19</div></td></tr><tr><td><div>192.168.80.1</div></td></tr><tr><td><div>DS</div></td></tr><tr><td><div>127.0.0.1</div></td></tr></table></div></td></tr><tr><td style="font-weight:bold;vertical-align:top;">path_info</td><td style="vertical-align:top;">:</td><td><div>/app1/default/fuelagency_place/FA1</div></td></tr><tr><td style="font-weight:bold;vertical-align:top;">query_string</td><td style="vertical-align:top;">:</td><td><div></div></td></tr><tr><td style="font-weight:bold;vertical-align:top;">remote_addr</td><td style="vertical-align:top;">:</td><td><div>127.0.0.1</div></td></tr><tr><td style="font-weight:bold;vertical-align:top;">remote_port</td><td style="vertical-align:top;">:</td><td><div>15601</div></td></tr><tr><td style="font-weight:bold;vertical-align:top;">request_method</td><td style="vertical-align:top;">:</td><td><div>GET</div></td></tr><tr><td style="font-weight:bold;vertical-align:top;">request_uri</td><td style="vertical-align:top;">:</td><td><div>/app1/default/fuelagency_place/FA1</div></td></tr><tr><td style="font-weight:bold;vertical-align:top;">script_name</td><td style="vertical-align:top;">:</td><td><div></div></td></tr><tr><td style="font-weight:bold;vertical-align:top;">server_name</td><td style="vertical-align:top;">:</td><td><div>DS</div></td></tr><tr><td style="font-weight:bold;vertical-align:top;">server_port</td><td style="vertical-align:top;">:</td><td><div>8000</div></td></tr><tr><td style="font-weight:bold;vertical-align:top;">server_protocol</td><td style="vertical-align:top;">:</td><td><div>HTTP/1.1</div></td></tr><tr><td style="font-weight:bold;vertical-align:top;">server_software</td><td style="vertical-align:top;">:</td><td><div>Rocket 1.2.6</div></td></tr><tr><td style="font-weight:bold;vertical-align:top;">web2py_path</td><td style="vertical-align:top;">:</td><td><div>K:\\web2py_win\\web2py</div></td></tr><tr><td style="font-weight:bold;vertical-align:top;">web2py_version</td><td style="vertical-align:top;">:</td><td><div>2.9.11-stable+timestamp.2014.09.15.23.35.11</div></td></tr><tr><td style="font-weight:bold;vertical-align:top;">wsgi.errors</td><td style="vertical-align:top;">:</td><td><div>&lt;open file &#x27;&lt;stderr&gt;&#x27;, mode &#x27;w&#x27; at 0x005E60D0&gt;</div></td></tr><tr><td style="font-weight:bold;vertical-align:top;">wsgi.file_wrapper</td><td style="vertical-align:top;">:</td><td><div>&lt;class wsgiref.util.FileWrapper at 0x02F33A78&gt;</div></td></tr><tr><td style="font-weight:bold;vertical-align:top;">wsgi.input</td><td style="vertical-align:top;">:</td><td><div>&lt;socket._fileobject object at 0x077499F0&gt;</div></td></tr><tr><td style="font-weight:bold;vertical-align:top;">wsgi.multiprocess</td><td style="vertical-align:top;">:</td><td><div>False</div></td></tr><tr><td style="font-weight:bold;vertical-align:top;">wsgi.multithread</td><td style="vertical-align:top;">:</td><td><div>True</div></td></tr><tr><td style="font-weight:bold;vertical-align:top;">wsgi.run_once</td><td style="vertical-align:top;">:</td><td><div>False</div></td></tr><tr><td style="font-weight:bold;vertical-align:top;">wsgi.url_scheme</td><td style="vertical-align:top;">:</td><td><div>http</div></td></tr><tr><td style="font-weight:bold;vertical-align:top;">wsgi.version</td><td style="vertical-align:top;">:</td><td><div><table><tr><td><div>1</div></td></tr><tr><td><div>0</div></td></tr></table></div></td></tr><tr><td style="font-weight:bold;vertical-align:top;">wsgi_errors</td><td style="vertical-align:top;">:</td><td><div>&lt;open file &#x27;&lt;stderr&gt;&#x27;, mode &#x27;w&#x27; at 0x005E60D0&gt;</div></td></tr><tr><td style="font-weight:bold;vertical-align:top;">wsgi_file_wrapper</td><td style="vertical-align:top;">:</td><td><div>&lt;class wsgiref.util.FileWrapper at 0x02F33A78&gt;</div></td></tr><tr><td style="font-weight:bold;vertical-align:top;">wsgi_input</td><td style="vertical-align:top;">:</td><td><div>&lt;socket._fileobject object at 0x077499F0&gt;</div></td></tr><tr><td style="font-weight:bold;vertical-align:top;">wsgi_multiprocess</td><td style="vertical-align:top;">:</td><td><div>False</div></td></tr><tr><td style="font-weight:bold;vertical-align:top;">wsgi_multithread</td><td style="vertical-align:top;">:</td><td><div>True</div></td></tr><tr><td style="font-weight:bold;vertical-align:top;">wsgi_run_once</td><td style="vertical-align:top;">:</td><td><div>False</div></td></tr><tr><td style="font-weight:bold;vertical-align:top;">wsgi_url_scheme</td><td style="vertical-align:top;">:</td><td><div>http</div></td></tr><tr><td style="font-weight:bold;vertical-align:top;">wsgi_version</td><td style="vertical-align:top;">:</td><td><div><table><tr><td><div>1</div></td></tr><tr><td><div>0</div></td></tr></table></div></td></tr></table></div></td></tr><tr><td style="font-weight:bold;vertical-align:top;">extension</td><td style="vertical-align:top;">:</td><td><div>html</div></td></tr><tr><td style="font-weight:bold;vertical-align:top;">folder</td><td style="vertical-align:top;">:</td><td><div>K:\\web2py_win\\web2py\\applications\\app1\\</div></td></tr><tr><td style="font-weight:bold;vertical-align:top;">function</td><td style="vertical-align:top;">:</td><td><div>fuelagency_place</div></td></tr><tr><td style="font-weight:bold;vertical-align:top;">global_settings</td><td style="vertical-align:top;">:</td><td><div><table><tr><td style="font-weight:bold;vertical-align:top;">app_folders</td><td style="vertical-align:top;">:</td><td><div>set([&#x27;K:\\\\web2py_win\\\\web2py\\\\applications\\\\admin\\\\&#x27;, &#x27;K:\\\\web2py_win\\\\web2py\\\\applications\\\\app1\\\\&#x27;, &#x27;K:\\\\web2py_win\\\\web2py\\\\applications\\\\welcome\\\\&#x27;])</div></td></tr><tr><td style="font-weight:bold;vertical-align:top;">applications_parent</td><td style="vertical-align:top;">:</td><td><div>K:\\web2py_win\\web2py</div></td></tr><tr><td style="font-weight:bold;vertical-align:top;">cmd_args</td><td style="vertical-align:top;">:</td><td><div><table></table></div></td></tr><tr><td style="font-weight:bold;vertical-align:top;">cmd_options</td><td style="vertical-align:top;">:</td><td><div>&lt;Values at 0x1fe4648: {&#x27;verbose&#x27;: False, &#x27;ip&#x27;: &#x27;127.0.0.1&#x27;, &#x27;debuglevel&#x27;: 30, &#x27;with_scheduler&#x27;: False, &#x27;ips&#x27;: [&#x27;fe80::817b:1680:b17a:2e9c%4&#x27;, &#x27;fe80::2482:bd98:73ee:c63e%20&#x27;, &#x27;10.9.11.12&#x27;, &#x27;172.17.32.111&#x27;, &#x27;fe80::2987:c43e:ae9f:be5f%19&#x27;, &#x27;192.168.80.1&#x27;], &#x27;shutdown_timeout&#x27;: 5, &#x27;taskbar&#x27;: False, &#x27;with_coverage&#x27;: False, &#x27;scheduler_groups&#x27;: None, &#x27;port&#x27;: 8000, &#x27;maxthreads&#x27;: None, &#x27;softcron&#x27;: False, &#x27;server_name&#x27;: &#x27;DS&#x27;, &#x27;bpython&#x27;: False, &#x27;nogui&#x27;: False, &#x27;pid_filename&#x27;: &#x27;httpserver.pid&#x27;, &#x27;extcron&#x27;: False, &#x27;runcron&#x27;: False, &#x27;run_system_tests&#x27;: False, &#x27;test&#x27;: None, &#x27;folder&#x27;: &#x27;K:\\\\web2py_win\\\\web2py&#x27;, &#x27;config&#x27;: &#x27;&#x27;, &#x27;minthreads&#x27;: None, &#x27;shell&#x27;: None, &#x27;run&#x27;: &#x27;&#x27;, &#x27;log_filename&#x27;: &#x27;httpserver.log&#x27;, &#x27;profiler_dir&#x27;: None, &#x27;args&#x27;: [&#x27;&#x27;], &#x27;socket_timeout&#x27;: 5, &#x27;ssl_ca_certificate&#x27;: None, &#x27;scheduler&#x27;: None, &#x27;interfaces&#x27;: None, &#x27;ssl_private_key&#x27;: &#x27;&#x27;, &#x27;gae&#x27;: None, &#x27;password&#x27;: &#x27;&lt;ask&gt;&#x27;, &#x27;request_queue_size&#x27;: 5, &#x27;ssl_certificate&#x27;: &#x27;&#x27;, &#x27;cronjob&#x27;: False, &#x27;numthreads&#x27;: None, &#x27;quiet&#x27;: False, &#x27;import_models&#x27;: False, &#x27;timeout&#x27;: 10, &#x27;plain&#x27;: False, &#x27;nobanner&#x27;: False}&gt;</div></td></tr><tr><td style="font-weight:bold;vertical-align:top;">db_sessions</td><td style="vertical-align:top;">:</td><td><div>set([])</div></td></tr><tr><td style="font-weight:bold;vertical-align:top;">debugging</td><td style="vertical-align:top;">:</td><td><div>True</div></td></tr><tr><td style="font-weight:bold;vertical-align:top;">gluon_parent</td><td style="vertical-align:top;">:</td><td><div>K:\\web2py_win\\web2py</div></td></tr><tr><td style="font-weight:bold;vertical-align:top;">is_jython</td><td style="vertical-align:top;">:</td><td><div>False</div></td></tr><tr><td style="font-weight:bold;vertical-align:top;">is_pypy</td><td style="vertical-align:top;">:</td><td><div>False</div></td></tr><tr><td style="font-weight:bold;vertical-align:top;">is_source</td><td style="vertical-align:top;">:</td><td><div>False</div></td></tr><tr><td style="font-weight:bold;vertical-align:top;">local_hosts</td><td style="vertical-align:top;">:</td><td><div><table><tr><td><div>fe80::817b:1680:b17a:2e9c%4</div></td></tr><tr><td><div>fe80::2482:bd98:73ee:c63e%20</div></td></tr><tr><td><div>10.9.11.12</div></td></tr><tr><td><div>::ffff:127.0.0.1</div></td></tr><tr><td><div>::1</div></td></tr><tr><td><div>172.17.32.111</div></td></tr><tr><td><div>fe80::2987:c43e:ae9f:be5f%19</div></td></tr><tr><td><div>192.168.80.1</div></td></tr><tr><td><div>DS</div></td></tr><tr><td><div>127.0.0.1</div></td></tr></table></div></td></tr><tr><td style="font-weight:bold;vertical-align:top;">web2py_version</td><td style="vertical-align:top;">:</td><td><div>2.9.11-stable+timestamp.2014.09.15.23.35.11</div></td></tr></table></div></td></tr><tr><td style="font-weight:bold;vertical-align:top;">is_https</td><td style="vertical-align:top;">:</td><td><div>False</div></td></tr><tr><td style="font-weight:bold;vertical-align:top;">is_local</td><td style="vertical-align:top;">:</td><td><div>True</div></td></tr><tr><td style="font-weight:bold;vertical-align:top;">is_restful</td><td style="vertical-align:top;">:</td><td><div>False</div></td></tr><tr><td style="font-weight:bold;vertical-align:top;">is_sheduler</td><td style="vertical-align:top;">:</td><td><div>None</div></td></tr><tr><td style="font-weight:bold;vertical-align:top;">is_shell</td><td style="vertical-align:top;">:</td><td><div>None</div></td></tr><tr><td style="font-weight:bold;vertical-align:top;">now</td><td style="vertical-align:top;">:</td><td><div>datetime.datetime(2014, 11, 7, 17, 40, 39, 293000)</div></td></tr><tr><td style="font-weight:bold;vertical-align:top;">raw_args</td><td style="vertical-align:top;">:</td><td><div>FA1</div></td></tr><tr><td style="font-weight:bold;vertical-align:top;">raw_extension</td><td style="vertical-align:top;">:</td><td><div>None</div></td></tr><tr><td style="font-weight:bold;vertical-align:top;">url</td><td style="vertical-align:top;">:</td><td><div>/app1/default/fuelagency_place/FA1</div></td></tr><tr><td style="font-weight:bold;vertical-align:top;">utcnow</td><td style="vertical-align:top;">:</td><td><div>datetime.datetime(2014, 11, 7, 12, 10, 39, 293000)</div></td></tr><tr><td style="font-weight:bold;vertical-align:top;">uuid</td><td style="vertical-align:top;">:</td><td><div>app1/127.0.0.1.2014-11-07.17-40-39.31f17660-6ac9-4ae0-8c2e-a9fbf63bedb4</div></td></tr><tr><td style="font-weight:bold;vertical-align:top;">wsgi</td><td style="vertical-align:top;">:</td><td><div>&lt;gluon.main.LazyWSGI object at 0x070C19D0&gt;</div></td></tr></table></div>'
tRp58
sS'frames'
p59
(lp60
(dp61
S'file'
p62
S'K:\\web2py_win\\web2py\\gluon\\restricted.py'
p63
sS'dump'
p64
(dp65
sS'lnum'
p66
I224
sS'lines'
p67
(dp68
sS'call'
p69
S"(code='# -*- coding: utf-8 -*-\\n# this file is released ...esponse._vars=response._caller(fuelagency_place)\\n', environment={'A': <class 'gluon.html.A'>, 'ANY_OF': <class 'gluon.validators.ANY_OF'>, 'ASSIGNJS': <function ASSIGNJS>, 'Auth': <class 'gluon.tools.Auth'>, 'B': <class 'gluon.html.B'>, 'BEAUTIFY': <class 'gluon.html.BEAUTIFY'>, 'BODY': <class 'gluon.html.BODY'>, 'BR': <class 'gluon.html.BR'>, 'BUTTON': <class 'gluon.html.BUTTON'>, 'CAT': <class 'gluon.html.CAT'>, ...}, layer=r'K:\\web2py_win\\web2py\\applications\\app1\\controllers/default.py')"
p70
sS'func'
p71
S'restricted'
p72
sa(dp73
g62
S'K:\\web2py_win\\web2py\\applications\\app1\\controllers\\default.py'
p74
sg64
(dp75
sg66
I515
sg67
(dp76
I512
S'        }'
p77
sI513
S'    return Collection(db).process(request,response,rules)'
p78
sI504
S'def api():'
p79
sI505
S'    """'
p80
sI506
S'    this is example of API with access control'
p81
sI507
S'    WEB2PY provides Hypermedia API (Collection+JSON) Experimental'
p82
sI508
S'    """'
p83
sI509
S'    from gluon.contrib.hypermedia import Collection'
p84
sI510
S'    rules = {'
p85
sI511
S"        '<tablename>': {'GET':{},'POST':{},'PUT':{},'DELETE':{}},"
p86
ssg69
S'()'
p87
sg71
S'<module>'
p88
sa(dp89
g62
S'K:\\web2py_win\\web2py\\gluon\\globals.py'
p90
sg64
(dp91
sg66
I392
sg67
(dp92
sg69
S'(f=<function fuelagency_place>)'
p93
sg71
S'<lambda>'
p94
sa(dp95
g62
S'K:\\web2py_win\\web2py\\gluon\\tools.py'
p96
sg64
(dp97
sg66
I3439
sg67
(dp98
sg69
S'(*a=(), **b={})'
p99
sg71
S'f'
sa(dp100
g62
S'K:\\web2py_win\\web2py\\applications\\app1\\controllers\\default.py'
p101
sg64
(dp102
S'global request'
p103
S"<Storage {'_vars': None, 'function': 'fuelagency... 'K:\\\\web2py_win\\\\web2py\\\\applications\\\\app1\\\\'}>"
p104
sS'phones'
p105
S'undefined'
p106
sS'builtinTrue'
p107
S'True'
p108
sS'db.fuel_agency_2'
p109
S'<Table fuel_agency_2 (id,ID_FA_2,Phone_FA)>'
p110
sS').select'
p111
g106
sS'request.args'
p112
S"['FA1']"
p113
sS'distinct'
p114
g106
sS'db.fuel_agency_2.Phone_FA'
p115
S'<gluon.dal.Field object>'
p116
sS'db.fuel_agency_2.ID_TS_2'
p117
g106
sS'global db'
p118
S'<DAL uri="sqlite://storage.sqlite">'
p119
ssg66
I108
sg67
(dp120
I103
S"    response.files.append(URL('static', 'css/background_fuelagency.css'))"
p121
sI104
S"    response.files.append(URL('static', 'css/box_fuel.css'))"
p122
sI105
S'    postals = db(db.fuel_agency.ID_FA==request.args[0]).select()'
p123
sI106
S'    x = db.fuel_agency(db.fuel_agency.ID_FA==request.args[0])'
p124
sI107
S'    affils = db(db.fuel_company.ID_FC==x.ID_FC_R).select()'
p125
sI108
S'    phones = db(db.fuel_agency_2.ID_TS_2==request.args[0]).select(db.fuel_agency_2.Phone_FA,distinct=True)'
p126
sI109
S'    db.visit_places.Place_ID.default = request.args[0]'
p127
sI110
S'    db.visit_places.Place_ID.readable = False'
p128
sI111
S'    db.visit_places.Place_ID.writable = False'
p129
sI112
S'    db.visit_places.RU_ID_Place.readable = False'
p130
ssg69
S'()'
p131
sg71
S'fuelagency_place'
p132
sa(dp133
g62
S'K:\\web2py_win\\web2py\\gluon\\dal.py'
p134
sg64
(dp135
sg66
I9110
sg67
(dp136
sg69
S"(self=<Table fuel_agency_2 (id,ID_FA_2,Phone_FA)>, key='ID_TS_2')"
p137
sg71
g20
sasS'pyver'
p138
S'Python 2.7.6: K:\\web2py_win\\web2py\\web2py.exe (prefix: C:\\Python27)'
p139
sS'session'
p140
g57
(S's \x0c\x00\x00<div><table><tr><td style="font-weight:bold;vertical-align:top;">auth</td><td style="vertical-align:top;">:</td><td><div><table><tr><td style="font-weight:bold;vertical-align:top;">expiration</td><td style="vertical-align:top;">:</td><td><div>3600</div></td></tr><tr><td style="font-weight:bold;vertical-align:top;">hmac_key</td><td style="vertical-align:top;">:</td><td><div>e0616d4e-1e8b-4d0d-b58c-1df171a3401d</div></td></tr><tr><td style="font-weight:bold;vertical-align:top;">last_visit</td><td style="vertical-align:top;">:</td><td><div>datetime.datetime(2014, 11, 7, 17, 40, 20, 858000)</div></td></tr><tr><td style="font-weight:bold;vertical-align:top;">remember_me</td><td style="vertical-align:top;">:</td><td><div>False</div></td></tr><tr><td style="font-weight:bold;vertical-align:top;">user</td><td style="vertical-align:top;">:</td><td><div><table><tr><td style="font-weight:bold;vertical-align:top;">address</td><td style="vertical-align:top;">:</td><td><div>sdd</div></td></tr><tr><td style="font-weight:bold;vertical-align:top;">city</td><td style="vertical-align:top;">:</td><td><div>k</div></td></tr><tr><td style="font-weight:bold;vertical-align:top;">email</td><td style="vertical-align:top;">:</td><td><div>varmashubham2@gmail.com</div></td></tr><tr><td style="font-weight:bold;vertical-align:top;">first_name</td><td style="vertical-align:top;">:</td><td><div>Shubham</div></td></tr><tr><td style="font-weight:bold;vertical-align:top;">id</td><td style="vertical-align:top;">:</td><td><div>14L</div></td></tr><tr><td style="font-weight:bold;vertical-align:top;">last_name</td><td style="vertical-align:top;">:</td><td><div>Varma</div></td></tr><tr><td style="font-weight:bold;vertical-align:top;">phone</td><td style="vertical-align:top;">:</td><td><div>988080980</div></td></tr><tr><td style="font-weight:bold;vertical-align:top;">registration_id</td><td style="vertical-align:top;">:</td><td><div></div></td></tr><tr><td style="font-weight:bold;vertical-align:top;">registration_key</td><td style="vertical-align:top;">:</td><td><div></div></td></tr><tr><td style="font-weight:bold;vertical-align:top;">reset_password_key</td><td style="vertical-align:top;">:</td><td><div></div></td></tr><tr><td style="font-weight:bold;vertical-align:top;">zip</td><td style="vertical-align:top;">:</td><td><div>8989</div></td></tr></table></div></td></tr><tr><td style="font-weight:bold;vertical-align:top;">user_groups</td><td style="vertical-align:top;">:</td><td><div><table><tr><td style="font-weight:bold;vertical-align:top;">15</td><td style="vertical-align:top;">:</td><td><div>user_14</div></td></tr></table></div></td></tr></table></div></td></tr><tr><td style="font-weight:bold;vertical-align:top;">flash</td><td style="vertical-align:top;">:</td><td><div>None</div></td></tr><tr><td style="font-weight:bold;vertical-align:top;">last_orderby</td><td style="vertical-align:top;">:</td><td><div>None</div></td></tr><tr><td style="font-weight:bold;vertical-align:top;">last_query</td><td style="vertical-align:top;">:</td><td><div>db.taxi_service_2.id&gt;0</div></td></tr></table></div>'
tRp141
sS'etype'
p142
S"<type 'exceptions.AttributeError'>"
p143
sS'date'
p144
S'Fri Nov 07 17:40:40 2014'
p145
sS'response'
p146
g57
(S's\xf6\x1e\x00\x00<div><table><tr><td style="font-weight:bold;vertical-align:top;">body</td><td style="vertical-align:top;">:</td><td><div>&lt;cStringIO.StringO object at 0x070C1B40&gt;</div></td></tr><tr><td style="font-weight:bold;vertical-align:top;">cookies</td><td style="vertical-align:top;">:</td><td><div><table><tr><td style="font-weight:bold;vertical-align:top;">session_id_app1</td><td style="vertical-align:top;">:</td><td><div>127.0.0.1-2b66bbd2-47f9-4a12-8fc2-546e326c7003<table><tr><td style="font-weight:bold;vertical-align:top;">comment</td><td style="vertical-align:top;">:</td><td><div></div></td></tr><tr><td style="font-weight:bold;vertical-align:top;">domain</td><td style="vertical-align:top;">:</td><td><div></div></td></tr><tr><td style="font-weight:bold;vertical-align:top;">expires</td><td style="vertical-align:top;">:</td><td><div></div></td></tr><tr><td style="font-weight:bold;vertical-align:top;">httponly</td><td style="vertical-align:top;">:</td><td><div></div></td></tr><tr><td style="font-weight:bold;vertical-align:top;">max-age</td><td style="vertical-align:top;">:</td><td><div></div></td></tr><tr><td style="font-weight:bold;vertical-align:top;">path</td><td style="vertical-align:top;">:</td><td><div>/</div></td></tr><tr><td style="font-weight:bold;vertical-align:top;">secure</td><td style="vertical-align:top;">:</td><td><div></div></td></tr><tr><td style="font-weight:bold;vertical-align:top;">version</td><td style="vertical-align:top;">:</td><td><div></div></td></tr></table></div></td></tr></table></div></td></tr><tr><td style="font-weight:bold;vertical-align:top;">delimiters</td><td style="vertical-align:top;">:</td><td><div><table><tr><td><div>{{</div></td></tr><tr><td><div>}}</div></td></tr></table></div></td></tr><tr><td style="font-weight:bold;vertical-align:top;">files</td><td style="vertical-align:top;">:</td><td><div><table><tr><td><div>/app1/static/css/background_fuelagency.css</div></td></tr><tr><td><div>/app1/static/css/box_fuel.css</div></td></tr></table></div></td></tr><tr><td style="font-weight:bold;vertical-align:top;">flash</td><td style="vertical-align:top;">:</td><td><div></div></td></tr><tr><td style="font-weight:bold;vertical-align:top;">form_label_separator</td><td style="vertical-align:top;">:</td><td><div>: </div></td></tr><tr><td style="font-weight:bold;vertical-align:top;">formstyle</td><td style="vertical-align:top;">:</td><td><div>table3cols</div></td></tr><tr><td style="font-weight:bold;vertical-align:top;">generic_patterns</td><td style="vertical-align:top;">:</td><td><div><table><tr><td><div>*</div></td></tr></table></div></td></tr><tr><td style="font-weight:bold;vertical-align:top;">google_analytics_id</td><td style="vertical-align:top;">:</td><td><div>None</div></td></tr><tr><td style="font-weight:bold;vertical-align:top;">headers</td><td style="vertical-align:top;">:</td><td><div><table><tr><td style="font-weight:bold;vertical-align:top;">X-Powered-By</td><td style="vertical-align:top;">:</td><td><div>web2py</div></td></tr></table></div></td></tr><tr><td style="font-weight:bold;vertical-align:top;">logo</td><td style="vertical-align:top;">:</td><td><div><a class="brand" href="/app1/default/home"><b>Incredible Varanasi</b><sup> MADS</sup></a></div></td></tr><tr><td style="font-weight:bold;vertical-align:top;">menu</td><td style="vertical-align:top;">:</td><td><div><table><tr><td><div><table><tr><td><div>Home</div></td></tr><tr><td><div>False</div></td></tr><tr><td><div>/app1/default/home</div></td></tr><tr><td><div><table></table></div></td></tr></table></div></td></tr><tr><td><div><table><tr><td><div><span class="highlighted">About Us</span></div></td></tr><tr><td><div>False</div></td></tr><tr><td><div>show</div></td></tr><tr><td><div><table><tr><td><div><table><tr><td><div>Contact</div></td></tr><tr><td><div>False</div></td></tr><tr><td><div>/app1/default/create</div></td></tr></table></div></td></tr></table></div></td></tr></table></div></td></tr></table></div></td></tr><tr><td style="font-weight:bold;vertical-align:top;">meta</td><td style="vertical-align:top;">:</td><td><div><table><tr><td style="font-weight:bold;vertical-align:top;">author</td><td style="vertical-align:top;">:</td><td><div>Mehul Jain &lt;mehul.jain.cse12@iitbhu.ac.in&gt;</div></td></tr><tr><td style="font-weight:bold;vertical-align:top;">generator</td><td style="vertical-align:top;">:</td><td><div>Web2py Web Framework</div></td></tr><tr><td style="font-weight:bold;vertical-align:top;">keywords</td><td style="vertical-align:top;">:</td><td><div>home</div></td></tr></table></div></td></tr><tr><td style="font-weight:bold;vertical-align:top;">models_to_run</td><td style="vertical-align:top;">:</td><td><div><table><tr><td><div>^\\w+\\.py$</div></td></tr><tr><td><div>^default/\\w+\\.py$</div></td></tr><tr><td><div>^default/fuelagency_place/\\w+\\.py$</div></td></tr></table></div></td></tr><tr><td style="font-weight:bold;vertical-align:top;">postprocessing</td><td style="vertical-align:top;">:</td><td><div><table></table></div></td></tr><tr><td style="font-weight:bold;vertical-align:top;">session_client</td><td style="vertical-align:top;">:</td><td><div>127.0.0.1</div></td></tr><tr><td style="font-weight:bold;vertical-align:top;">session_cookie_compression_level</td><td style="vertical-align:top;">:</td><td><div>None</div></td></tr><tr><td style="font-weight:bold;vertical-align:top;">session_cookie_expires</td><td style="vertical-align:top;">:</td><td><div>None</div></td></tr><tr><td style="font-weight:bold;vertical-align:top;">session_cookie_key</td><td style="vertical-align:top;">:</td><td><div>None</div></td></tr><tr><td style="font-weight:bold;vertical-align:top;">session_data_name</td><td style="vertical-align:top;">:</td><td><div>session_data_app1</div></td></tr><tr><td style="font-weight:bold;vertical-align:top;">session_file</td><td style="vertical-align:top;">:</td><td><div>&lt;open file &#x27;K:\\\\web2py_win\\\\web2py\\\\applications\\\\app1\\\\sessions\\\\10f\\\\092\\\\127.0.0.1-2b66bbd2-47f9-4a12-8fc2-546e326c7003&#x27;, mode &#x27;rb+&#x27; at 0x07ECDA18&gt;</div></td></tr><tr><td style="font-weight:bold;vertical-align:top;">session_filename</td><td style="vertical-align:top;">:</td><td><div>K:\\web2py_win\\web2py\\applications\\app1\\sessions\\127.0.0.1-2b66bbd2-47f9-4a12-8fc2-546e326c7003</div></td></tr><tr><td style="font-weight:bold;vertical-align:top;">session_hash</td><td style="vertical-align:top;">:</td><td><div>dd340b10ea699d58fbcea98b86fa7d34</div></td></tr><tr><td style="font-weight:bold;vertical-align:top;">session_id</td><td style="vertical-align:top;">:</td><td><div>127.0.0.1-2b66bbd2-47f9-4a12-8fc2-546e326c7003</div></td></tr><tr><td style="font-weight:bold;vertical-align:top;">session_id_name</td><td style="vertical-align:top;">:</td><td><div>session_id_app1</div></td></tr><tr><td style="font-weight:bold;vertical-align:top;">session_locked</td><td style="vertical-align:top;">:</td><td><div>True</div></td></tr><tr><td style="font-weight:bold;vertical-align:top;">session_masterapp</td><td style="vertical-align:top;">:</td><td><div>app1</div></td></tr><tr><td style="font-weight:bold;vertical-align:top;">session_new</td><td style="vertical-align:top;">:</td><td><div>False</div></td></tr><tr><td style="font-weight:bold;vertical-align:top;">session_storage_type</td><td style="vertical-align:top;">:</td><td><div>file</div></td></tr><tr><td style="font-weight:bold;vertical-align:top;">status</td><td style="vertical-align:top;">:</td><td><div>200</div></td></tr><tr><td style="font-weight:bold;vertical-align:top;">subtitle</td><td style="vertical-align:top;">:</td><td><div></div></td></tr><tr><td style="font-weight:bold;vertical-align:top;">title</td><td style="vertical-align:top;">:</td><td><div>App1</div></td></tr><tr><td style="font-weight:bold;vertical-align:top;">view</td><td style="vertical-align:top;">:</td><td><div>default/fuelagency_place.html</div></td></tr></table></div>'
tRp147
sS'locals'
p148
(dp149
S'self'
p150
S'<Table fuel_agency_2 (id,ID_FA_2,Phone_FA)>'
p151
sS'key'
p152
S"'ID_TS_2'"
p153
sssS'traceback'
p154
S'Traceback (most recent call last):\n  File "gluon/restricted.py", line 224, in restricted\n  File "K:\\web2py_win\\web2py\\applications\\app1\\controllers/default.py", line 515, in <module>\n  File "gluon/globals.py", line 392, in <lambda>\n  File "gluon/tools.py", line 3439, in f\n  File "K:\\web2py_win\\web2py\\applications\\app1\\controllers/default.py", line 108, in fuelagency_place\n    phones = db(db.fuel_agency_2.ID_TS_2==request.args[0]).select(db.fuel_agency_2.Phone_FA,distinct=True)\n  File "gluon/dal.py", line 9110, in __getitem__\nAttributeError: \'Table\' object has no attribute \'ID_TS_2\'\n'
p155
s.