(dp1
S'output'
p2
S"<type 'exceptions.IndexError'> list index out of range"
p3
sS'layer'
p4
S'C:\\Users\\lenovo\\Downloads\\Compressed\\web2py\\applications\\app1\\models\\db1.py'
p5
sS'code'
p6
S"# -*- coding: utf-8 -*-\ndb.define_table('blog_post',\n                Field('title',requires=IS_NOT_EMPTY()),\n                Field('body','text',requires=IS_NOT_EMPTY()),\n                auth.signature\n                )\ndb.define_table('places',\n                Field('Place_ID'),\n                Field('Place_Name'),\n                Field('Place_Type'),\n                Field('rating','integer')\n               )\ndb.define_table('place_distance',\n                Field('place1'),\n                Field('place2'),\n                Field('distance')\n)\ndb.define_table('bank',\n               Field('ID_BK','string',requires=IS_NOT_EMPTY()),\n               Field('Name_BK','string'),\n               Field('Street_BK','string'),\n               Field('City_BK','string'),\n               Field('State_BK','string'),\n               Field('Zip_BK','integer'),\n               Field('Opening_BK','time'),\n               Field('Closing_BK','time'),\n               primarykey=['ID_BK'],\n               migrate=False\n)\n\ndb.define_table('entertainment_hub',\n               Field('ID_EH','string',requires=IS_NOT_EMPTY()),\n               Field('Name_EH','string'),\n               Field('Description_EH','string'),\n               Field('Street_EH','string'),\n               Field('City_EH','string'),\n               Field('State_EH','string'),\n               Field('Zip_EH','integer'),\n               Field('Rating_EH','integer'),\n               Field('Ticket_Price_EH','integer'),\n               Field('Opening_EH','time'),\n               Field('Closing_EH','time'),\n               primarykey=['ID_EH'],\n               migrate=False\n)\ndb.define_table('fuel_agency',\n               Field('ID_FA','string',requires=IS_NOT_EMPTY()),\n               Field('Name_FA','string'),\n               Field('Street_FA','string'),\n               Field('City_FA','string'),\n               Field('State_FA','string'),\n               Field('Zip_FA','integer'),\n               Field('Phone_FA','string'),\n               Field('ID_FC_R','string',requires=IS_NOT_EMPTY()),\n               primarykey=['ID_FA'],\n               migrate=False\n)\ndb.define_table('fuel_company',\n               Field('ID_FC','string',requires=IS_NOT_EMPTY()),\n               Field('Name_FC','string'),\n               Field('Dieselperlitre_FC','integer'),\n               Field('Petrolperlitre_FC','integer'),\n               primarkey=['ID_FC','Phone_FA'],\n               migrate=False\n)\n\ndb.define_table('local_handlooms',\n               Field('ID_LH','string',requires=IS_NOT_EMPTY()),\n               Field('Name_LH','string'),\n               Field('Description_LH','string'),\n               Field('Street_RU','string'),\n               Field('City_RU','string'),\n               Field('State_RU','string'),\n               Field('Zip_RU','integer'),\n               Field('Rating_LH','integer'),\n               Field('Opening_LH','time'),\n               Field('Closing_LH','time'),\n               primarykey=['ID_LH'],\n               migrate=False\n)\n\ndb.define_table('heritage_areas',\n                Field('ID_HA','string',requires=IS_NOT_EMPTY()),\n                Field('Name_HA','string',requires=IS_NOT_EMPTY()),\n                Field('Description_HA','text'),\n               Field('Street_HA','string'),\n               Field('City_HA','string'),\n               Field('State_HA','string'),\n               Field('Zip_HA','integer'),\n               Field('Rating_HA','integer'),\n               Field('Ticket_Price_HA','integer'),\n               Field('Opening_HA','time'),\n               Field('Closing_HA','time'),\n               primarykey=['ID_HA'],\n               migrate=False\n)\n\ndb.define_table('hotels',\n               Field('ID_HT','string',requires=IS_NOT_EMPTY()),\n               Field('Name_HT','string'),\n               Field('Description_HT','string'),\n               Field('Street_HT','string'),\n               Field('City_HT','string'),\n               Field('State_HT','string'),\n               Field('Zip_HT','integer'),\n               Field('Rating_HT','integer'),\n               Field('Website_HT','string'),\n               Field('Phone_HT','string'),\n               primarykey=['ID_HT'],\n               migrate=False\n)\ndb.define_table('recreation_hub',\n               Field('ID_RH','string',requires=IS_NOT_EMPTY()),\n               Field('Name_RH','string'),\n               Field('Street_RH','string'),\n               Field('City_RH','string'),\n               Field('State_RH','string'),\n               Field('Zip_RH','integer'),\n               Field('Rating_RH','integer'),\n               Field('Description_RH','string'),\n               Field('Opening_RH','time'),\n               Field('Closing_RH','time'),\n               primarykey=['ID_RH'],\n               migrate=False\n)\ndb.define_table('restaurant',\n               Field('ID_RS','string',requires=IS_NOT_EMPTY()),\n               Field('Name_RS','string'),\n               Field('Description_RS','string'),\n               Field('Street_RS','string'),\n               Field('City_RS','string'),\n               Field('State_RS','string'),\n               Field('Zip_RS','integer'),\n               Field('Opening_RS','time'),\n               Field('Closing_RS','time'),\n               Field('Rating_RS','integer'),\n               Field('Website_RS','string'),\n               primarykey=['ID_RS'],\n               migrate=False\n)\ndb.define_table('spiritual_hub',\n               Field('ID_SH','string',requires=IS_NOT_EMPTY()),\n               Field('Name_SH','string'),\n               Field('Description_SH','string'),\n               Field('Street_SH','string'),\n               Field('City_SH','string'),\n               Field('State_SH','string'),\n               Field('Zip_SH','integer'),\n               Field('Rating_SH','integer'),\n               Field('Opening_SH','time'),\n               Field('Closing_SH','time'),\n               primarykey=['ID_RH'],\n               \n)\n\ndb.define_table('check_table',\n                Field('name','string'),\n                Field('amount','integer')\n)\n\ndb.define_table('visit_places',\n                Field('RU_ID_Place','string',requires=IS_NOT_EMPTY()),\n                Field('Place_ID','string',requires=IS_NOT_EMPTY()),\n                Field('User_Comment_Place','text'),\n                Field('User_Rating_Place','integer'),\n                auth.signature\n\n)\n\ndb.define_table('comment_reply',\n                Field('Comment_user','text',requires=IS_NOT_EMPTY()),\n                auth.signature\n\n)\n\ndb.define_table('travel_agency',\n               Field('ID_TA_1','string',requires=IS_NOT_EMPTY()),\n               Field('Name_TA','string'),\n               Field('Description_TA','string'),\n               Field('Street_TA','string'),\n               Field('City_TA','string'),\n               Field('State_TA','string'),\n               Field('Zip_TA','integer'),\n               Field('Rating_TA','integer'),\n               Field('Website_TA','string'),\n               primarykey=['ID_TA_1'],\n               migrate=False\n)\ndb.define_table('taxi_service',\n               Field('ID_TS_1','string',requires=IS_NOT_EMPTY()),\n               Field('Name_TS','string'),\n               Field('Street_TS','string'),\n               Field('City_TS','string'),\n               Field('State_TS','string'),\n               Field('Zip_TS','integer'),\n               Field('Rating_TS','integer'),\n               Field('Website_TS','string'),\n               primarykey=['ID_TS_1'],\n               migrate=False\n)\n"
p7
sS'snapshot'
p8
(dp9
sS'traceback'
p10
S'Traceback (most recent call last):\n  File "gluon/restricted.py", line 224, in restricted\n  File "C:\\Users\\lenovo\\Downloads\\Compressed\\web2py\\applications\\app1\\models\\db1.py", line 152, in <module>\n    primarykey=[\'ID_RH\'],\n  File "gluon/dal.py", line 8414, in define_table\n  File "gluon/dal.py", line 8430, in lazy_define_table\n  File "gluon/dal.py", line 8890, in __init__\nIndexError: list index out of range\n'
p11
s.